ARM GAS  C:\Users\Owner\AppData\Local\Temp\ccv0lMJk.s 			page 1


   1              		.cpu cortex-m7
   2              		.arch armv7e-m
   3              		.fpu fpv5-d16
   4              		.eabi_attribute 28, 1
   5              		.eabi_attribute 20, 1
   6              		.eabi_attribute 21, 1
   7              		.eabi_attribute 23, 3
   8              		.eabi_attribute 24, 1
   9              		.eabi_attribute 25, 1
  10              		.eabi_attribute 26, 1
  11              		.eabi_attribute 30, 2
  12              		.eabi_attribute 34, 1
  13              		.eabi_attribute 18, 4
  14              		.file	"Blink.cpp"
  15              		.text
  16              	.Ltext0:
  17              		.cfi_sections	.debug_frame
  18              		.file 1 "Blink.cpp"
  19              		.section	.text._ZN5daisy9DaisySeedD2Ev,"axG",%progbits,_ZN5daisy9DaisySeedD5Ev,comdat
  20              		.align	1
  21              		.p2align 2,,3
  22              		.weak	_ZN5daisy9DaisySeedD2Ev
  23              		.syntax unified
  24              		.thumb
  25              		.thumb_func
  27              	_ZN5daisy9DaisySeedD2Ev:
  28              	.LVL0:
  29              	.LFB2359:
  30              		.file 2 "libDaisy/src/daisy_seed.h"
   1:libDaisy/src/daisy_seed.h **** #pragma once
   2:libDaisy/src/daisy_seed.h **** #ifndef DSY_SEED_H
   3:libDaisy/src/daisy_seed.h **** #define DSY_SEED_H
   4:libDaisy/src/daisy_seed.h **** 
   5:libDaisy/src/daisy_seed.h **** #include "daisy.h"
   6:libDaisy/src/daisy_seed.h **** 
   7:libDaisy/src/daisy_seed.h **** //Uncomment this out if you're still using the rev2 hardware
   8:libDaisy/src/daisy_seed.h **** //#define SEED_REV2
   9:libDaisy/src/daisy_seed.h **** 
  10:libDaisy/src/daisy_seed.h **** namespace daisy
  11:libDaisy/src/daisy_seed.h **** {
  12:libDaisy/src/daisy_seed.h **** /**
  13:libDaisy/src/daisy_seed.h ****    @brief This is the higher-level interface for the Daisy board. \n 
  14:libDaisy/src/daisy_seed.h ****     All basic peripheral configuration/initialization is setup here. \n
  15:libDaisy/src/daisy_seed.h **** 
  16:libDaisy/src/daisy_seed.h ****    @ingroup boards
  17:libDaisy/src/daisy_seed.h **** */
  18:libDaisy/src/daisy_seed.h **** class DaisySeed
  19:libDaisy/src/daisy_seed.h **** {
  20:libDaisy/src/daisy_seed.h ****   public:
  21:libDaisy/src/daisy_seed.h ****     DaisySeed() {}
  22:libDaisy/src/daisy_seed.h ****     ~DaisySeed() {}
  31              		.loc 2 22 5 view -0
  32              		.cfi_startproc
  33              		@ args = 0, pretend = 0, frame = 0
  34              		@ frame_needed = 0, uses_anonymous_args = 0
  35              		@ link register save eliminated.
  36              	.LBB378:
ARM GAS  C:\Users\Owner\AppData\Local\Temp\ccv0lMJk.s 			page 2


  37              	.LBI378:
  38              		.file 3 "libDaisy/src/sys/system.h"
   1:libDaisy/src/sys/system.h **** #ifndef DSY_SYSTEM_H
   2:libDaisy/src/sys/system.h **** #define DSY_SYSTEM_H
   3:libDaisy/src/sys/system.h **** 
   4:libDaisy/src/sys/system.h **** #ifndef UNIT_TEST // for unit tests, a dummy implementation is provided below
   5:libDaisy/src/sys/system.h **** 
   6:libDaisy/src/sys/system.h **** #include <cstdint>
   7:libDaisy/src/sys/system.h **** #include "per/tim.h"
   8:libDaisy/src/sys/system.h **** 
   9:libDaisy/src/sys/system.h **** namespace daisy
  10:libDaisy/src/sys/system.h **** {
  11:libDaisy/src/sys/system.h **** /** A handle for interacting with the Core System.
  12:libDaisy/src/sys/system.h ****  ** This includes the Clock tree, MPU, global DMA initialization,
  13:libDaisy/src/sys/system.h ****  ** cache handling, and any other necessary global initiailzation
  14:libDaisy/src/sys/system.h ****  **
  15:libDaisy/src/sys/system.h ****  ** @author shensley
  16:libDaisy/src/sys/system.h ****  ** @ingroup system
  17:libDaisy/src/sys/system.h ****  */
  18:libDaisy/src/sys/system.h **** class System
  19:libDaisy/src/sys/system.h **** {
  20:libDaisy/src/sys/system.h ****   public:
  21:libDaisy/src/sys/system.h ****     /** Contains settings for initializing the System */
  22:libDaisy/src/sys/system.h ****     struct Config
  23:libDaisy/src/sys/system.h ****     {
  24:libDaisy/src/sys/system.h ****         /** Specifies the system clock frequency that feeds APB/AHB clocks, etc. */
  25:libDaisy/src/sys/system.h ****         enum class SysClkFreq
  26:libDaisy/src/sys/system.h ****         {
  27:libDaisy/src/sys/system.h ****             FREQ_400MHZ,
  28:libDaisy/src/sys/system.h ****             FREQ_480MHZ,
  29:libDaisy/src/sys/system.h ****         };
  30:libDaisy/src/sys/system.h **** 
  31:libDaisy/src/sys/system.h ****         /** Method to call on the struct to set to defaults
  32:libDaisy/src/sys/system.h ****          ** CPU Freq set to 400MHz
  33:libDaisy/src/sys/system.h ****          ** Cache Enabled
  34:libDaisy/src/sys/system.h ****          ** */
  35:libDaisy/src/sys/system.h ****         void Defaults()
  36:libDaisy/src/sys/system.h ****         {
  37:libDaisy/src/sys/system.h ****             cpu_freq    = SysClkFreq::FREQ_400MHZ;
  38:libDaisy/src/sys/system.h ****             use_dcache  = true;
  39:libDaisy/src/sys/system.h ****             use_icache  = true;
  40:libDaisy/src/sys/system.h ****             skip_clocks = false;
  41:libDaisy/src/sys/system.h ****         }
  42:libDaisy/src/sys/system.h **** 
  43:libDaisy/src/sys/system.h ****         /** Method to call on the struct to set to boost mode:
  44:libDaisy/src/sys/system.h ****          ** CPU Freq set to 480MHz
  45:libDaisy/src/sys/system.h ****          ** Cache Enabled
  46:libDaisy/src/sys/system.h ****          ** */
  47:libDaisy/src/sys/system.h ****         void Boost()
  48:libDaisy/src/sys/system.h ****         {
  49:libDaisy/src/sys/system.h ****             cpu_freq    = SysClkFreq::FREQ_480MHZ;
  50:libDaisy/src/sys/system.h ****             use_dcache  = true;
  51:libDaisy/src/sys/system.h ****             use_icache  = true;
  52:libDaisy/src/sys/system.h ****             skip_clocks = false;
  53:libDaisy/src/sys/system.h ****         }
  54:libDaisy/src/sys/system.h **** 
  55:libDaisy/src/sys/system.h ****         SysClkFreq cpu_freq;
ARM GAS  C:\Users\Owner\AppData\Local\Temp\ccv0lMJk.s 			page 3


  56:libDaisy/src/sys/system.h ****         bool       use_dcache;
  57:libDaisy/src/sys/system.h ****         bool       use_icache;
  58:libDaisy/src/sys/system.h ****         bool       skip_clocks;
  59:libDaisy/src/sys/system.h ****     };
  60:libDaisy/src/sys/system.h **** 
  61:libDaisy/src/sys/system.h ****     /** Describes the different regions of memory available to the Daisy */
  62:libDaisy/src/sys/system.h ****     enum MemoryRegion
  63:libDaisy/src/sys/system.h ****     {
  64:libDaisy/src/sys/system.h ****         INTERNAL_FLASH = 0,
  65:libDaisy/src/sys/system.h ****         ITCMRAM,
  66:libDaisy/src/sys/system.h ****         DTCMRAM,
  67:libDaisy/src/sys/system.h ****         SRAM_D1,
  68:libDaisy/src/sys/system.h ****         SRAM_D2,
  69:libDaisy/src/sys/system.h ****         SRAM_D3,
  70:libDaisy/src/sys/system.h ****         SDRAM,
  71:libDaisy/src/sys/system.h ****         QSPI,
  72:libDaisy/src/sys/system.h ****         INVALID_ADDRESS,
  73:libDaisy/src/sys/system.h ****     };
  74:libDaisy/src/sys/system.h **** 
  75:libDaisy/src/sys/system.h ****     /** Bootloader struct for controlling bootloading parameters */
  76:libDaisy/src/sys/system.h ****     struct BootInfo
  77:libDaisy/src/sys/system.h ****     {
  78:libDaisy/src/sys/system.h ****         enum class Type : uint32_t
  79:libDaisy/src/sys/system.h ****         {
  80:libDaisy/src/sys/system.h ****             INVALID      = 0x00000000,
  81:libDaisy/src/sys/system.h ****             JUMP         = 0xDEADBEEF,
  82:libDaisy/src/sys/system.h ****             SKIP_TIMEOUT = 0x5AFEB007,
  83:libDaisy/src/sys/system.h ****             INF_TIMEOUT  = 0xB0074EFA,
  84:libDaisy/src/sys/system.h ****         } status;
  85:libDaisy/src/sys/system.h ****         uint32_t data;
  86:libDaisy/src/sys/system.h ****         enum class Version : uint32_t
  87:libDaisy/src/sys/system.h ****         {
  88:libDaisy/src/sys/system.h ****             LT_v6_0 = 0, // Less than v6.0
  89:libDaisy/src/sys/system.h ****             NONE,        // No bootloader present
  90:libDaisy/src/sys/system.h ****             v6_0,        // v6.0
  91:libDaisy/src/sys/system.h ****             v6_1,        // v6.1 or greater
  92:libDaisy/src/sys/system.h ****             LAST
  93:libDaisy/src/sys/system.h ****         } version;
  94:libDaisy/src/sys/system.h ****     };
  95:libDaisy/src/sys/system.h **** 
  96:libDaisy/src/sys/system.h ****     System() {}
  97:libDaisy/src/sys/system.h ****     ~System() {}
  39              		.loc 3 97 5 view .LVU1
  40              		.loc 3 97 5 is_stmt 0 view .LVU2
  41              	.LBE378:
  42              	.LBB379:
  43              	.LBI379:
  44              		.file 4 "libDaisy/src/hid/usb.h"
   1:libDaisy/src/hid/usb.h **** #pragma once
   2:libDaisy/src/hid/usb.h **** #ifndef DSY_HID_USB_H
   3:libDaisy/src/hid/usb.h **** #define DSY_HID_USB_H
   4:libDaisy/src/hid/usb.h **** #include <stdint.h>
   5:libDaisy/src/hid/usb.h **** #include <stdlib.h>
   6:libDaisy/src/hid/usb.h **** 
   7:libDaisy/src/hid/usb.h **** namespace daisy
   8:libDaisy/src/hid/usb.h **** /** @addtogroup human_interface
   9:libDaisy/src/hid/usb.h ****     @{
ARM GAS  C:\Users\Owner\AppData\Local\Temp\ccv0lMJk.s 			page 4


  10:libDaisy/src/hid/usb.h **** */
  11:libDaisy/src/hid/usb.h **** 
  12:libDaisy/src/hid/usb.h **** {
  13:libDaisy/src/hid/usb.h **** /** 
  14:libDaisy/src/hid/usb.h ****     @brief Interface for initializing and using the USB Peripherals on the daisy
  15:libDaisy/src/hid/usb.h ****     @author Stephen Hensley
  16:libDaisy/src/hid/usb.h ****     @date December 2019
  17:libDaisy/src/hid/usb.h **** */
  18:libDaisy/src/hid/usb.h **** class UsbHandle
  19:libDaisy/src/hid/usb.h **** {
  20:libDaisy/src/hid/usb.h ****   public:
  21:libDaisy/src/hid/usb.h ****     /** Return values for USBHandle Functions */
  22:libDaisy/src/hid/usb.h ****     enum class Result
  23:libDaisy/src/hid/usb.h ****     {
  24:libDaisy/src/hid/usb.h ****         OK,
  25:libDaisy/src/hid/usb.h ****         ERR,
  26:libDaisy/src/hid/usb.h ****     };
  27:libDaisy/src/hid/usb.h **** 
  28:libDaisy/src/hid/usb.h ****     /** Specified which of the two USB Peripherals to initialize. */
  29:libDaisy/src/hid/usb.h ****     enum UsbPeriph
  30:libDaisy/src/hid/usb.h ****     {
  31:libDaisy/src/hid/usb.h ****         FS_INTERNAL, /**< Internal pin */
  32:libDaisy/src/hid/usb.h ****         FS_EXTERNAL, /**< FS External D+ pin is Pin 38 (GPIO32). FS External D- pin is Pin 37 (GPIO
  33:libDaisy/src/hid/usb.h ****         FS_BOTH,     /**< Both */
  34:libDaisy/src/hid/usb.h ****     };
  35:libDaisy/src/hid/usb.h **** 
  36:libDaisy/src/hid/usb.h **** 
  37:libDaisy/src/hid/usb.h ****     /** Function called upon reception of a buffer */
  38:libDaisy/src/hid/usb.h ****     typedef void (*ReceiveCallback)(uint8_t* buff, uint32_t* len);
  39:libDaisy/src/hid/usb.h **** 
  40:libDaisy/src/hid/usb.h ****     UsbHandle() {}
  41:libDaisy/src/hid/usb.h **** 
  42:libDaisy/src/hid/usb.h ****     ~UsbHandle() {}
  45              		.loc 4 42 5 is_stmt 1 view .LVU3
  46              		.loc 4 42 5 is_stmt 0 view .LVU4
  47              	.LBE379:
  48              	.LBB380:
  49              	.LBI380:
  50              		.file 5 "libDaisy/src/per/adc.h"
   1:libDaisy/src/per/adc.h **** #pragma once
   2:libDaisy/src/per/adc.h **** #ifndef DSY_ADC_H
   3:libDaisy/src/per/adc.h **** #define DSY_ADC_H /**< Macro */
   4:libDaisy/src/per/adc.h **** #include <stdint.h>
   5:libDaisy/src/per/adc.h **** #include <stdlib.h>
   6:libDaisy/src/per/adc.h **** #include "daisy_core.h"
   7:libDaisy/src/per/adc.h **** #include "per/gpio.h"
   8:libDaisy/src/per/adc.h **** 
   9:libDaisy/src/per/adc.h **** #define DSY_ADC_MAX_CHANNELS 16 /**< Maximum number of ADC channels */
  10:libDaisy/src/per/adc.h **** 
  11:libDaisy/src/per/adc.h **** namespace daisy
  12:libDaisy/src/per/adc.h **** {
  13:libDaisy/src/per/adc.h **** /** @addtogroup per_analog
  14:libDaisy/src/per/adc.h ****     @{
  15:libDaisy/src/per/adc.h **** */
  16:libDaisy/src/per/adc.h **** 
  17:libDaisy/src/per/adc.h **** /* While there may not be many configuration options here,
  18:libDaisy/src/per/adc.h **** using a struct like this allows us to add more configuration
ARM GAS  C:\Users\Owner\AppData\Local\Temp\ccv0lMJk.s 			page 5


  19:libDaisy/src/per/adc.h **** later without breaking existing functionality.
  20:libDaisy/src/per/adc.h **** */
  21:libDaisy/src/per/adc.h **** 
  22:libDaisy/src/per/adc.h **** /** @brief   Configuration Structure for an ADC Channel 
  23:libDaisy/src/per/adc.h ****  *  @details This can be used to configure a a single input, 
  24:libDaisy/src/per/adc.h ****  *           or a multiplexed input, allowing up to 8 inputs on 
  25:libDaisy/src/per/adc.h ****  *           one channel.
  26:libDaisy/src/per/adc.h ****  *  @note    Sharing data lines to multiple muxes _is_ possible, but
  27:libDaisy/src/per/adc.h ****  *           each channel sharing data lines must be set to the maximum
  28:libDaisy/src/per/adc.h ****  *           number of channels, even if some multiplexers have fewer
  29:libDaisy/src/per/adc.h ****  *           inputs connected.
  30:libDaisy/src/per/adc.h **** */
  31:libDaisy/src/per/adc.h **** struct AdcChannelConfig
  32:libDaisy/src/per/adc.h **** {
  33:libDaisy/src/per/adc.h ****     /** Which pin to use for multiplexing */
  34:libDaisy/src/per/adc.h ****     enum MuxPin
  35:libDaisy/src/per/adc.h ****     {
  36:libDaisy/src/per/adc.h ****         MUX_SEL_0,    /**< & */
  37:libDaisy/src/per/adc.h ****         MUX_SEL_1,    /**< & */
  38:libDaisy/src/per/adc.h ****         MUX_SEL_2,    /**< & */
  39:libDaisy/src/per/adc.h ****         MUX_SEL_LAST, /**< & */
  40:libDaisy/src/per/adc.h ****     };
  41:libDaisy/src/per/adc.h **** 
  42:libDaisy/src/per/adc.h ****     /** \brief per channel conversion speed added to fixed time based on bitdepth, etc. */
  43:libDaisy/src/per/adc.h ****     enum ConversionSpeed
  44:libDaisy/src/per/adc.h ****     {
  45:libDaisy/src/per/adc.h ****         SPEED_1CYCLES_5,
  46:libDaisy/src/per/adc.h ****         SPEED_2CYCLES_5,
  47:libDaisy/src/per/adc.h ****         SPEED_8CYCLES_5,
  48:libDaisy/src/per/adc.h ****         SPEED_16CYCLES_5,
  49:libDaisy/src/per/adc.h ****         SPEED_32CYCLES_5,
  50:libDaisy/src/per/adc.h ****         SPEED_64CYCLES_5,
  51:libDaisy/src/per/adc.h ****         SPEED_387CYCLES_5,
  52:libDaisy/src/per/adc.h ****         SPEED_810CYCLES_5,
  53:libDaisy/src/per/adc.h ****     };
  54:libDaisy/src/per/adc.h **** 
  55:libDaisy/src/per/adc.h ****     /** Initializes a single ADC pin as an ADC. 
  56:libDaisy/src/per/adc.h ****     \param pin Pin to init.
  57:libDaisy/src/per/adc.h ****     \param speed conversion speed for this pin defaults to 8.5 cycles
  58:libDaisy/src/per/adc.h ****      */
  59:libDaisy/src/per/adc.h ****     void InitSingle(dsy_gpio_pin pin, ConversionSpeed speed = SPEED_8CYCLES_5);
  60:libDaisy/src/per/adc.h **** 
  61:libDaisy/src/per/adc.h ****     /** 
  62:libDaisy/src/per/adc.h ****     Initializes a single ADC pin as a Multiplexed ADC.
  63:libDaisy/src/per/adc.h ****     Requires a CD405X Multiplexer connected to the pin.
  64:libDaisy/src/per/adc.h ****     You only need to supply the mux pins that are required,
  65:libDaisy/src/per/adc.h ****     e.g. a 4052 mux would only require mux_0 and mux_1.
  66:libDaisy/src/per/adc.h ****     Internal Callbacks handle the pin addressing.
  67:libDaisy/src/per/adc.h ****     \param adc_pin &
  68:libDaisy/src/per/adc.h ****     \param mux_channels must be 1-8
  69:libDaisy/src/per/adc.h ****     \param mux_0 First mux pin
  70:libDaisy/src/per/adc.h ****     \param mux_1 Second mux pin
  71:libDaisy/src/per/adc.h ****     \param mux_2 Third mux pin
  72:libDaisy/src/per/adc.h ****     \param speed conversion speed for this pin defaults to 8.5 cycles
  73:libDaisy/src/per/adc.h ****     */
  74:libDaisy/src/per/adc.h ****     void InitMux(dsy_gpio_pin    adc_pin,
  75:libDaisy/src/per/adc.h ****                  size_t          mux_channels,
ARM GAS  C:\Users\Owner\AppData\Local\Temp\ccv0lMJk.s 			page 6


  76:libDaisy/src/per/adc.h ****                  dsy_gpio_pin    mux_0,
  77:libDaisy/src/per/adc.h ****                  dsy_gpio_pin    mux_1 = {DSY_GPIOX, 0},
  78:libDaisy/src/per/adc.h ****                  dsy_gpio_pin    mux_2 = {DSY_GPIOX, 0},
  79:libDaisy/src/per/adc.h ****                  ConversionSpeed speed = SPEED_8CYCLES_5);
  80:libDaisy/src/per/adc.h **** 
  81:libDaisy/src/per/adc.h ****     dsy_gpio        pin_;                   /**< & */
  82:libDaisy/src/per/adc.h ****     dsy_gpio        mux_pin_[MUX_SEL_LAST]; /**< & */
  83:libDaisy/src/per/adc.h ****     uint8_t         mux_channels_;          /**< & */
  84:libDaisy/src/per/adc.h ****     ConversionSpeed speed_;
  85:libDaisy/src/per/adc.h **** };
  86:libDaisy/src/per/adc.h **** 
  87:libDaisy/src/per/adc.h **** /**
  88:libDaisy/src/per/adc.h ****    @brief Handler for analog to digital conversion
  89:libDaisy/src/per/adc.h **** */
  90:libDaisy/src/per/adc.h **** class AdcHandle
  91:libDaisy/src/per/adc.h **** {
  92:libDaisy/src/per/adc.h ****   public:
  93:libDaisy/src/per/adc.h ****     /** Supported oversampling amounts */
  94:libDaisy/src/per/adc.h ****     enum OverSampling
  95:libDaisy/src/per/adc.h ****     {
  96:libDaisy/src/per/adc.h ****         OVS_NONE, /**< & */
  97:libDaisy/src/per/adc.h ****         OVS_4,    /**< & */
  98:libDaisy/src/per/adc.h ****         OVS_8,    /**< & */
  99:libDaisy/src/per/adc.h ****         OVS_16,   /**< & */
 100:libDaisy/src/per/adc.h ****         OVS_32,   /**< & */
 101:libDaisy/src/per/adc.h ****         OVS_64,   /**< & */
 102:libDaisy/src/per/adc.h ****         OVS_128,  /**< & */
 103:libDaisy/src/per/adc.h ****         OVS_256,  /**< & */
 104:libDaisy/src/per/adc.h ****         OVS_512,  /**< & */
 105:libDaisy/src/per/adc.h ****         OVS_1024, /**< & */
 106:libDaisy/src/per/adc.h ****         OVS_LAST, /**< & */
 107:libDaisy/src/per/adc.h ****     };
 108:libDaisy/src/per/adc.h **** 
 109:libDaisy/src/per/adc.h ****     AdcHandle() {}
 110:libDaisy/src/per/adc.h ****     ~AdcHandle() {}
  51              		.loc 5 110 5 is_stmt 1 view .LVU5
  52              		.loc 5 110 5 is_stmt 0 view .LVU6
  53              	.LBE380:
  54              	.LBB381:
  55              	.LBI381:
  56              		.file 6 "libDaisy/src/hid/audio.h"
   1:libDaisy/src/hid/audio.h **** #ifndef DSY_AUDIO_H
   2:libDaisy/src/hid/audio.h **** #define DSY_AUDIO_H /**< & */
   3:libDaisy/src/hid/audio.h **** 
   4:libDaisy/src/hid/audio.h **** #include "per/sai.h"
   5:libDaisy/src/hid/audio.h **** 
   6:libDaisy/src/hid/audio.h **** namespace daisy
   7:libDaisy/src/hid/audio.h **** {
   8:libDaisy/src/hid/audio.h **** /** @brief Audio Engine Handle
   9:libDaisy/src/hid/audio.h ****  *  @ingroup audio 
  10:libDaisy/src/hid/audio.h ****  *  @details This class allows for higher level access to an audio engine.
  11:libDaisy/src/hid/audio.h ****  *           If you're using a SOM like the DaisySeed or DaisyPatchSM (or any 
  12:libDaisy/src/hid/audio.h ****  *            board that includes one of those objects) then the intialization
  13:libDaisy/src/hid/audio.h ****  *            is already taken  care of.
  14:libDaisy/src/hid/audio.h ****  *           If you're setting up your own custom hardware, or need to make changes
  15:libDaisy/src/hid/audio.h ****  *           you will have to take the following steps:
  16:libDaisy/src/hid/audio.h ****  *             1. Create and Initialize an SaiHandle or two depending on your requirements
ARM GAS  C:\Users\Owner\AppData\Local\Temp\ccv0lMJk.s 			page 7


  17:libDaisy/src/hid/audio.h ****  *             2. Initialize the Audio Handle with the desired settings and the Initialized SaiHand
  18:libDaisy/src/hid/audio.h ****  *             3. If the connected codec requires special configuration or initialization, do so
  19:libDaisy/src/hid/audio.h ****  *             4. Write a callback method using either the AudioCallback or the InterleavingAudioCa
  20:libDaisy/src/hid/audio.h ****  *             5. Start the Audio using one of the StartAudio function
  21:libDaisy/src/hid/audio.h ****  */
  22:libDaisy/src/hid/audio.h **** class AudioHandle
  23:libDaisy/src/hid/audio.h **** {
  24:libDaisy/src/hid/audio.h ****   public:
  25:libDaisy/src/hid/audio.h ****     /** Manually configurable details about the Audio Engine */
  26:libDaisy/src/hid/audio.h ****     /** TODO: Figure out how to get samplerate in here. */
  27:libDaisy/src/hid/audio.h ****     struct Config
  28:libDaisy/src/hid/audio.h ****     {
  29:libDaisy/src/hid/audio.h ****         /** number of samples to process per callback */
  30:libDaisy/src/hid/audio.h ****         size_t blocksize;
  31:libDaisy/src/hid/audio.h **** 
  32:libDaisy/src/hid/audio.h ****         /**< Sample rate of audio */
  33:libDaisy/src/hid/audio.h ****         SaiHandle::Config::SampleRate samplerate;
  34:libDaisy/src/hid/audio.h **** 
  35:libDaisy/src/hid/audio.h ****         /** factor for adjustment before and after callback for hardware that may have extra headro
  36:libDaisy/src/hid/audio.h ****         float postgain;
  37:libDaisy/src/hid/audio.h **** 
  38:libDaisy/src/hid/audio.h ****         /** factor for additional one-sided compensation to audio path for hardware that may
  39:libDaisy/src/hid/audio.h ****          *  have unequal input/output ranges
  40:libDaisy/src/hid/audio.h ****          */
  41:libDaisy/src/hid/audio.h ****         float output_compensation;
  42:libDaisy/src/hid/audio.h **** 
  43:libDaisy/src/hid/audio.h ****         /** Sets default values for config struct */
  44:libDaisy/src/hid/audio.h ****         Config()
  45:libDaisy/src/hid/audio.h ****         : blocksize(48),
  46:libDaisy/src/hid/audio.h ****           samplerate(SaiHandle::Config::SampleRate::SAI_48KHZ),
  47:libDaisy/src/hid/audio.h ****           postgain(1.f),
  48:libDaisy/src/hid/audio.h ****           output_compensation(1.f)
  49:libDaisy/src/hid/audio.h ****         {
  50:libDaisy/src/hid/audio.h ****         }
  51:libDaisy/src/hid/audio.h ****     };
  52:libDaisy/src/hid/audio.h **** 
  53:libDaisy/src/hid/audio.h ****     enum class Result
  54:libDaisy/src/hid/audio.h ****     {
  55:libDaisy/src/hid/audio.h ****         OK,
  56:libDaisy/src/hid/audio.h ****         ERR,
  57:libDaisy/src/hid/audio.h ****     };
  58:libDaisy/src/hid/audio.h **** 
  59:libDaisy/src/hid/audio.h ****     /** Non-Interleaving input buffer
  60:libDaisy/src/hid/audio.h ****      * Buffer arranged by float[chn][sample] 
  61:libDaisy/src/hid/audio.h ****      * const so that the user can't modify the input
  62:libDaisy/src/hid/audio.h ****      */
  63:libDaisy/src/hid/audio.h ****     typedef const float* const* InputBuffer;
  64:libDaisy/src/hid/audio.h **** 
  65:libDaisy/src/hid/audio.h ****     /** Non-Interleaving output buffer
  66:libDaisy/src/hid/audio.h ****      * Arranged by float[chn][sample] 
  67:libDaisy/src/hid/audio.h ****      */
  68:libDaisy/src/hid/audio.h ****     typedef float** OutputBuffer;
  69:libDaisy/src/hid/audio.h **** 
  70:libDaisy/src/hid/audio.h ****     /** Type for a Non-Interleaving audio callback 
  71:libDaisy/src/hid/audio.h ****      * Non-Interleaving audio callbacks in daisy will be of this type
  72:libDaisy/src/hid/audio.h ****      */
  73:libDaisy/src/hid/audio.h ****     typedef void (*AudioCallback)(InputBuffer  in,
ARM GAS  C:\Users\Owner\AppData\Local\Temp\ccv0lMJk.s 			page 8


  74:libDaisy/src/hid/audio.h ****                                   OutputBuffer out,
  75:libDaisy/src/hid/audio.h ****                                   size_t       size);
  76:libDaisy/src/hid/audio.h **** 
  77:libDaisy/src/hid/audio.h ****     /** Interleaving Input buffer
  78:libDaisy/src/hid/audio.h ****      ** audio is prepared as { L0, R0, L1, R1, . . . LN, RN }]
  79:libDaisy/src/hid/audio.h ****      ** this is const, as the user shouldn't modify it
  80:libDaisy/src/hid/audio.h ****     */
  81:libDaisy/src/hid/audio.h ****     typedef const float* InterleavingInputBuffer;
  82:libDaisy/src/hid/audio.h **** 
  83:libDaisy/src/hid/audio.h ****     /** Interleaving Output buffer 
  84:libDaisy/src/hid/audio.h ****      ** audio is prepared as { L0, R0, L1, R1, . . . LN, RN }
  85:libDaisy/src/hid/audio.h ****     */
  86:libDaisy/src/hid/audio.h ****     typedef float* InterleavingOutputBuffer;
  87:libDaisy/src/hid/audio.h **** 
  88:libDaisy/src/hid/audio.h ****     /** Interleaving Audio Callback 
  89:libDaisy/src/hid/audio.h ****      * Interleaving audio callbacks in daisy must be of this type
  90:libDaisy/src/hid/audio.h ****      */
  91:libDaisy/src/hid/audio.h ****     typedef void (*InterleavingAudioCallback)(InterleavingInputBuffer  in,
  92:libDaisy/src/hid/audio.h ****                                               InterleavingOutputBuffer out,
  93:libDaisy/src/hid/audio.h ****                                               size_t                   size);
  94:libDaisy/src/hid/audio.h **** 
  95:libDaisy/src/hid/audio.h ****     AudioHandle() : pimpl_(nullptr) {}
  96:libDaisy/src/hid/audio.h ****     ~AudioHandle() {}
  57              		.loc 6 96 5 is_stmt 1 view .LVU7
  58              		.loc 6 96 5 is_stmt 0 view .LVU8
  59              	.LBE381:
  60              		.loc 2 22 19 view .LVU9
  61 0000 7047     		bx	lr
  62              		.cfi_endproc
  63              	.LFE2359:
  65              		.weak	_ZN5daisy9DaisySeedD1Ev
  66              		.thumb_set _ZN5daisy9DaisySeedD1Ev,_ZN5daisy9DaisySeedD2Ev
  67 0002 00BF     		.section	.text._Z9null_freqd,"ax",%progbits
  68              		.align	1
  69              		.p2align 2,,3
  70              		.global	_Z9null_freqd
  71              		.syntax unified
  72              		.thumb
  73              		.thumb_func
  75              	_Z9null_freqd:
  76              	.LVL1:
  77              	.LFB3577:
  78              		.file 7 "enclosure_funcs.hpp"
   1:enclosure_funcs.hpp **** #ifndef ENCLOSURE_FUNCS_HPP
   2:enclosure_funcs.hpp **** #define ENCLOSURE_FUNCS_HPP
   3:enclosure_funcs.hpp **** 
   4:enclosure_funcs.hpp **** #include <cmath>
   5:enclosure_funcs.hpp **** 
   6:enclosure_funcs.hpp **** 
   7:enclosure_funcs.hpp **** // create generic function generation macro
   8:enclosure_funcs.hpp **** // #define CREATE_ENCLOSURE_FUNC(NOTE, B1, B2, B3, B4, DIV) \
   9:enclosure_funcs.hpp **** //     double enclosure_##NOTE##_func(double t) \
  10:enclosure_funcs.hpp **** //     { \
  11:enclosure_funcs.hpp **** //         double div_factor = static_cast<double>(DIV); \
  12:enclosure_funcs.hpp **** //         double ret_val = 0.0; \
  13:enclosure_funcs.hpp **** //         if(t < static_cast<double>(B1)) \
  14:enclosure_funcs.hpp **** //         { \
ARM GAS  C:\Users\Owner\AppData\Local\Temp\ccv0lMJk.s 			page 9


  15:enclosure_funcs.hpp **** //             ret_val = (static_cast<double>(B2)/static_cast<double>(B1)) * t; \
  16:enclosure_funcs.hpp **** //         } \
  17:enclosure_funcs.hpp **** //         else \
  18:enclosure_funcs.hpp **** //         { \ 
  19:enclosure_funcs.hpp **** //             ret_val = static_cast<double>(B2) * exp((-static_cast<double>(B3)) * pow((t - static
  20:enclosure_funcs.hpp **** //         } \
  21:enclosure_funcs.hpp **** //         return ret_val * (1.0 / div_factor); \
  22:enclosure_funcs.hpp **** //     }
  23:enclosure_funcs.hpp **** 
  24:enclosure_funcs.hpp **** 
  25:enclosure_funcs.hpp **** double null_freq(double t) {return 0.0; }
  79              		.loc 7 25 28 is_stmt 1 view -0
  80              		.cfi_startproc
  81              		@ args = 0, pretend = 0, frame = 0
  82              		@ frame_needed = 0, uses_anonymous_args = 0
  83              		@ link register save eliminated.
  84              		.loc 7 25 29 view .LVU11
  85              		.loc 7 25 41 is_stmt 0 view .LVU12
  86 0000 9FED010B 		vldr.64	d0, .L4
  87              	.LVL2:
  88              		.loc 7 25 41 view .LVU13
  89 0004 7047     		bx	lr
  90              	.L5:
  91 0006 00BF     		.align	3
  92              	.L4:
  93 0008 00000000 		.word	0
  94 000c 00000000 		.word	0
  95              		.cfi_endproc
  96              	.LFE3577:
  98              		.section	.text._Z17enclosure_Cf_funcd,"ax",%progbits
  99              		.align	1
 100              		.p2align 2,,3
 101              		.global	_Z17enclosure_Cf_funcd
 102              		.syntax unified
 103              		.thumb
 104              		.thumb_func
 106              	_Z17enclosure_Cf_funcd:
 107              	.LVL3:
 108              	.LFB3578:
  26:enclosure_funcs.hpp **** 
  27:enclosure_funcs.hpp **** 
  28:enclosure_funcs.hpp **** #define CREATE_ENCLOSURE_FUNC(NOTE, B1, B2, B3, B4, DIV) \
  29:enclosure_funcs.hpp ****     double enclosure_##NOTE##_func(double t) \
  30:enclosure_funcs.hpp ****     { \
  31:enclosure_funcs.hpp ****         double div_factor = static_cast<double>(DIV); \
  32:enclosure_funcs.hpp ****         double ret_val = 0.0; \
  33:enclosure_funcs.hpp ****         ret_val = static_cast<double>(B2) * exp((-static_cast<double>(B3)) * pow((t), static_cast<d
  34:enclosure_funcs.hpp ****         return ret_val * (1.0 / div_factor); \
  35:enclosure_funcs.hpp ****     }
  36:enclosure_funcs.hpp **** 
  37:enclosure_funcs.hpp **** 
  38:enclosure_funcs.hpp **** // C
  39:enclosure_funcs.hpp **** CREATE_ENCLOSURE_FUNC(Cf, 0.375000000000000, 2.040140808792328e+03, 0.535093709322769, 1.0790428731
 109              		.loc 7 39 1 is_stmt 1 view -0
 110              		.cfi_startproc
 111              		@ args = 0, pretend = 0, frame = 0
 112              		@ frame_needed = 0, uses_anonymous_args = 0
ARM GAS  C:\Users\Owner\AppData\Local\Temp\ccv0lMJk.s 			page 10


 113              		.loc 7 39 1 view .LVU15
 114              		.loc 7 39 1 view .LVU16
 115              		.loc 7 39 1 view .LVU17
 116 0000 9FED091B 		vldr.64	d1, .L8
 117 0004 08B5     		push	{r3, lr}
 118              		.cfi_def_cfa_offset 8
 119              		.cfi_offset 3, -8
 120              		.cfi_offset 14, -4
 121              		.loc 7 39 1 is_stmt 0 view .LVU18
 122 0006 FFF7FEFF 		bl	pow
 123              	.LVL4:
 124              		.loc 7 39 1 discriminator 1 view .LVU19
 125 000a 9FED097B 		vldr.64	d7, .L8+8
 126 000e 20EE070B 		vmul.f64	d0, d0, d7
 127 0012 FFF7FEFF 		bl	exp
 128              	.LVL5:
 129              		.loc 7 39 1 is_stmt 1 discriminator 2 view .LVU20
 130 0016 9FED086B 		vldr.64	d6, .L8+16
 131 001a 9FED097B 		vldr.64	d7, .L8+24
 132 001e 20EE060B 		vmul.f64	d0, d0, d6
 133              	.LVL6:
 134              		.loc 7 39 1 is_stmt 0 view .LVU21
 135 0022 20EE070B 		vmul.f64	d0, d0, d7
 136              	.LVL7:
 137              		.loc 7 39 1 view .LVU22
 138 0026 08BD     		pop	{r3, pc}
 139              	.L9:
 140              		.align	3
 141              	.L8:
 142 0028 CC47B075 		.word	1974486988
 143 002c C243F13F 		.word	1072776130
 144 0030 9EC5BAD7 		.word	-675625570
 145 0034 7C1FE1BF 		.word	-1075765380
 146 0038 27182E30 		.word	808327207
 147 003c 90E09F40 		.word	1084219536
 148 0040 2E153868 		.word	1748505902
 149 0044 C70F403F 		.word	1061162951
 150              		.cfi_endproc
 151              	.LFE3578:
 153              		.section	.text._Z18enclosure_Ch1_funcd,"ax",%progbits
 154              		.align	1
 155              		.p2align 2,,3
 156              		.global	_Z18enclosure_Ch1_funcd
 157              		.syntax unified
 158              		.thumb
 159              		.thumb_func
 161              	_Z18enclosure_Ch1_funcd:
 162              	.LVL8:
 163              	.LFB3579:
  40:enclosure_funcs.hpp **** CREATE_ENCLOSURE_FUNC(Ch1, 0.375000000000000, 1.715995809779227e+03, 0.429207002994230, 1.119633045
 164              		.loc 7 40 1 is_stmt 1 view -0
 165              		.cfi_startproc
 166              		@ args = 0, pretend = 0, frame = 0
 167              		@ frame_needed = 0, uses_anonymous_args = 0
 168              		.loc 7 40 1 view .LVU24
 169              		.loc 7 40 1 view .LVU25
 170              		.loc 7 40 1 view .LVU26
ARM GAS  C:\Users\Owner\AppData\Local\Temp\ccv0lMJk.s 			page 11


 171 0000 9FED091B 		vldr.64	d1, .L12
 172 0004 08B5     		push	{r3, lr}
 173              		.cfi_def_cfa_offset 8
 174              		.cfi_offset 3, -8
 175              		.cfi_offset 14, -4
 176              		.loc 7 40 1 is_stmt 0 view .LVU27
 177 0006 FFF7FEFF 		bl	pow
 178              	.LVL9:
 179              		.loc 7 40 1 discriminator 1 view .LVU28
 180 000a 9FED097B 		vldr.64	d7, .L12+8
 181 000e 20EE070B 		vmul.f64	d0, d0, d7
 182 0012 FFF7FEFF 		bl	exp
 183              	.LVL10:
 184              		.loc 7 40 1 is_stmt 1 discriminator 2 view .LVU29
 185 0016 9FED086B 		vldr.64	d6, .L12+16
 186 001a 9FED097B 		vldr.64	d7, .L12+24
 187 001e 20EE060B 		vmul.f64	d0, d0, d6
 188              	.LVL11:
 189              		.loc 7 40 1 is_stmt 0 view .LVU30
 190 0022 20EE070B 		vmul.f64	d0, d0, d7
 191              	.LVL12:
 192              		.loc 7 40 1 view .LVU31
 193 0026 08BD     		pop	{r3, pc}
 194              	.L13:
 195              		.align	3
 196              	.L12:
 197 0028 EC2EFE56 		.word	1459498732
 198 002c 04EAF13F 		.word	1072818692
 199 0030 D6C244A6 		.word	-1505443114
 200 0034 2078DBBF 		.word	-1076135904
 201 0038 450B8FB5 		.word	-1248916667
 202 003c FBCF9A40 		.word	1083887611
 203 0040 2E153868 		.word	1748505902
 204 0044 C70F403F 		.word	1061162951
 205              		.cfi_endproc
 206              	.LFE3579:
 208              		.section	.text._Z18enclosure_Ch2_funcd,"ax",%progbits
 209              		.align	1
 210              		.p2align 2,,3
 211              		.global	_Z18enclosure_Ch2_funcd
 212              		.syntax unified
 213              		.thumb
 214              		.thumb_func
 216              	_Z18enclosure_Ch2_funcd:
 217              	.LVL13:
 218              	.LFB3580:
  41:enclosure_funcs.hpp **** CREATE_ENCLOSURE_FUNC(Ch2, 0.250000000000000, 2.478549976362874e+02, 0.655059632955800, 1.024131110
 219              		.loc 7 41 1 is_stmt 1 view -0
 220              		.cfi_startproc
 221              		@ args = 0, pretend = 0, frame = 0
 222              		@ frame_needed = 0, uses_anonymous_args = 0
 223              		.loc 7 41 1 view .LVU33
 224              		.loc 7 41 1 view .LVU34
 225              		.loc 7 41 1 view .LVU35
 226 0000 9FED091B 		vldr.64	d1, .L16
 227 0004 08B5     		push	{r3, lr}
 228              		.cfi_def_cfa_offset 8
ARM GAS  C:\Users\Owner\AppData\Local\Temp\ccv0lMJk.s 			page 12


 229              		.cfi_offset 3, -8
 230              		.cfi_offset 14, -4
 231              		.loc 7 41 1 is_stmt 0 view .LVU36
 232 0006 FFF7FEFF 		bl	pow
 233              	.LVL14:
 234              		.loc 7 41 1 discriminator 1 view .LVU37
 235 000a 9FED097B 		vldr.64	d7, .L16+8
 236 000e 20EE070B 		vmul.f64	d0, d0, d7
 237 0012 FFF7FEFF 		bl	exp
 238              	.LVL15:
 239              		.loc 7 41 1 is_stmt 1 discriminator 2 view .LVU38
 240 0016 9FED086B 		vldr.64	d6, .L16+16
 241 001a 9FED097B 		vldr.64	d7, .L16+24
 242 001e 20EE060B 		vmul.f64	d0, d0, d6
 243              	.LVL16:
 244              		.loc 7 41 1 is_stmt 0 view .LVU39
 245 0022 20EE070B 		vmul.f64	d0, d0, d7
 246              	.LVL17:
 247              		.loc 7 41 1 view .LVU40
 248 0026 08BD     		pop	{r3, pc}
 249              	.L17:
 250              		.align	3
 251              	.L16:
 252 0028 EA57C44D 		.word	1304713194
 253 002c D762F03F 		.word	1072718551
 254 0030 96328F9E 		.word	-1634782570
 255 0034 3FF6E4BF 		.word	-1075513793
 256 0038 60C00024 		.word	604029024
 257 003c 5CFB6E40 		.word	1081015132
 258 0040 2E153868 		.word	1748505902
 259 0044 C70F403F 		.word	1061162951
 260              		.cfi_endproc
 261              	.LFE3580:
 263              		.section	.text._Z18enclosure_Ch3_funcd,"ax",%progbits
 264              		.align	1
 265              		.p2align 2,,3
 266              		.global	_Z18enclosure_Ch3_funcd
 267              		.syntax unified
 268              		.thumb
 269              		.thumb_func
 271              	_Z18enclosure_Ch3_funcd:
 272              	.LVL18:
 273              	.LFB3581:
  42:enclosure_funcs.hpp **** CREATE_ENCLOSURE_FUNC(Ch3, 0.125000000000000, 1.420827662642884e+02, 0.767300866881554, 0.813361061
 274              		.loc 7 42 1 is_stmt 1 view -0
 275              		.cfi_startproc
 276              		@ args = 0, pretend = 0, frame = 0
 277              		@ frame_needed = 0, uses_anonymous_args = 0
 278              		.loc 7 42 1 view .LVU42
 279              		.loc 7 42 1 view .LVU43
 280              		.loc 7 42 1 view .LVU44
 281 0000 9FED091B 		vldr.64	d1, .L20
 282 0004 08B5     		push	{r3, lr}
 283              		.cfi_def_cfa_offset 8
 284              		.cfi_offset 3, -8
 285              		.cfi_offset 14, -4
 286              		.loc 7 42 1 is_stmt 0 view .LVU45
ARM GAS  C:\Users\Owner\AppData\Local\Temp\ccv0lMJk.s 			page 13


 287 0006 FFF7FEFF 		bl	pow
 288              	.LVL19:
 289              		.loc 7 42 1 discriminator 1 view .LVU46
 290 000a 9FED097B 		vldr.64	d7, .L20+8
 291 000e 20EE070B 		vmul.f64	d0, d0, d7
 292 0012 FFF7FEFF 		bl	exp
 293              	.LVL20:
 294              		.loc 7 42 1 is_stmt 1 discriminator 2 view .LVU47
 295 0016 9FED086B 		vldr.64	d6, .L20+16
 296 001a 9FED097B 		vldr.64	d7, .L20+24
 297 001e 20EE060B 		vmul.f64	d0, d0, d6
 298              	.LVL21:
 299              		.loc 7 42 1 is_stmt 0 view .LVU48
 300 0022 20EE070B 		vmul.f64	d0, d0, d7
 301              	.LVL22:
 302              		.loc 7 42 1 view .LVU49
 303 0026 08BD     		pop	{r3, pc}
 304              	.L21:
 305              		.align	3
 306              	.L20:
 307 0028 F54CC6C6 		.word	-960082699
 308 002c 0D07EA3F 		.word	1072301837
 309 0030 F25B2E8C 		.word	-1943118862
 310 0034 BA8DE8BF 		.word	-1075278406
 311 0038 96CA6F05 		.word	91212438
 312 003c A6C26140 		.word	1080148646
 313 0040 2E153868 		.word	1748505902
 314 0044 C70F403F 		.word	1061162951
 315              		.cfi_endproc
 316              	.LFE3581:
 318              		.section	.text._Z18enclosure_Ch4_funcd,"ax",%progbits
 319              		.align	1
 320              		.p2align 2,,3
 321              		.global	_Z18enclosure_Ch4_funcd
 322              		.syntax unified
 323              		.thumb
 324              		.thumb_func
 326              	_Z18enclosure_Ch4_funcd:
 327              	.LVL23:
 328              	.LFB3582:
  43:enclosure_funcs.hpp **** CREATE_ENCLOSURE_FUNC(Ch4, 0.500000000000000, 1.606126867941693e+02, 0.791673047461889, 0.996736072
 329              		.loc 7 43 1 is_stmt 1 view -0
 330              		.cfi_startproc
 331              		@ args = 0, pretend = 0, frame = 0
 332              		@ frame_needed = 0, uses_anonymous_args = 0
 333              		.loc 7 43 1 view .LVU51
 334              		.loc 7 43 1 view .LVU52
 335              		.loc 7 43 1 view .LVU53
 336 0000 9FED091B 		vldr.64	d1, .L24
 337 0004 08B5     		push	{r3, lr}
 338              		.cfi_def_cfa_offset 8
 339              		.cfi_offset 3, -8
 340              		.cfi_offset 14, -4
 341              		.loc 7 43 1 is_stmt 0 view .LVU54
 342 0006 FFF7FEFF 		bl	pow
 343              	.LVL24:
 344              		.loc 7 43 1 discriminator 1 view .LVU55
ARM GAS  C:\Users\Owner\AppData\Local\Temp\ccv0lMJk.s 			page 14


 345 000a 9FED097B 		vldr.64	d7, .L24+8
 346 000e 20EE070B 		vmul.f64	d0, d0, d7
 347 0012 FFF7FEFF 		bl	exp
 348              	.LVL25:
 349              		.loc 7 43 1 is_stmt 1 discriminator 2 view .LVU56
 350 0016 9FED086B 		vldr.64	d6, .L24+16
 351 001a 9FED097B 		vldr.64	d7, .L24+24
 352 001e 20EE060B 		vmul.f64	d0, d0, d6
 353              	.LVL26:
 354              		.loc 7 43 1 is_stmt 0 view .LVU57
 355 0022 20EE070B 		vmul.f64	d0, d0, d7
 356              	.LVL27:
 357              		.loc 7 43 1 view .LVU58
 358 0026 08BD     		pop	{r3, pc}
 359              	.L25:
 360              		.align	3
 361              	.L24:
 362 0028 B4E7710C 		.word	208791476
 363 002c 43E5EF3F 		.word	1072686403
 364 0030 A926FFB6 		.word	-1224792407
 365 0034 6255E9BF 		.word	-1075227294
 366 0038 BEF45521 		.word	559281342
 367 003c 9B136440 		.word	1080300443
 368 0040 2E153868 		.word	1748505902
 369 0044 C70F403F 		.word	1061162951
 370              		.cfi_endproc
 371              	.LFE3582:
 373              		.section	.text._Z23enclosure_C_Sharpf_funcd,"ax",%progbits
 374              		.align	1
 375              		.p2align 2,,3
 376              		.global	_Z23enclosure_C_Sharpf_funcd
 377              		.syntax unified
 378              		.thumb
 379              		.thumb_func
 381              	_Z23enclosure_C_Sharpf_funcd:
 382              	.LVL28:
 383              	.LFB3583:
  44:enclosure_funcs.hpp **** 
  45:enclosure_funcs.hpp **** // C#
  46:enclosure_funcs.hpp **** CREATE_ENCLOSURE_FUNC(C_Sharpf, 0.125000000000000, 2.352373001699147e+03, 0.571250781435366, 1.0971
 384              		.loc 7 46 1 is_stmt 1 view -0
 385              		.cfi_startproc
 386              		@ args = 0, pretend = 0, frame = 0
 387              		@ frame_needed = 0, uses_anonymous_args = 0
 388              		.loc 7 46 1 view .LVU60
 389              		.loc 7 46 1 view .LVU61
 390              		.loc 7 46 1 view .LVU62
 391 0000 9FED091B 		vldr.64	d1, .L28
 392 0004 08B5     		push	{r3, lr}
 393              		.cfi_def_cfa_offset 8
 394              		.cfi_offset 3, -8
 395              		.cfi_offset 14, -4
 396              		.loc 7 46 1 is_stmt 0 view .LVU63
 397 0006 FFF7FEFF 		bl	pow
 398              	.LVL29:
 399              		.loc 7 46 1 discriminator 1 view .LVU64
 400 000a 9FED097B 		vldr.64	d7, .L28+8
ARM GAS  C:\Users\Owner\AppData\Local\Temp\ccv0lMJk.s 			page 15


 401 000e 20EE070B 		vmul.f64	d0, d0, d7
 402 0012 FFF7FEFF 		bl	exp
 403              	.LVL30:
 404              		.loc 7 46 1 is_stmt 1 discriminator 2 view .LVU65
 405 0016 9FED086B 		vldr.64	d6, .L28+16
 406 001a 9FED097B 		vldr.64	d7, .L28+24
 407 001e 20EE060B 		vmul.f64	d0, d0, d6
 408              	.LVL31:
 409              		.loc 7 46 1 is_stmt 0 view .LVU66
 410 0022 20EE070B 		vmul.f64	d0, d0, d7
 411              	.LVL32:
 412              		.loc 7 46 1 view .LVU67
 413 0026 08BD     		pop	{r3, pc}
 414              	.L29:
 415              		.align	3
 416              	.L28:
 417 0028 519EFA1F 		.word	536518225
 418 002c 0E8EF13F 		.word	1072795150
 419 0030 F68902B8 		.word	-1207793162
 420 0034 AF47E2BF 		.word	-1075689553
 421 0038 612614FA 		.word	-99342751
 422 003c BE60A240 		.word	1084383422
 423 0040 B4FF29FC 		.word	-64356428
 424 0044 09DC3B3F 		.word	1060887561
 425              		.cfi_endproc
 426              	.LFE3583:
 428              		.section	.text._Z24enclosure_C_Sharph1_funcd,"ax",%progbits
 429              		.align	1
 430              		.p2align 2,,3
 431              		.global	_Z24enclosure_C_Sharph1_funcd
 432              		.syntax unified
 433              		.thumb
 434              		.thumb_func
 436              	_Z24enclosure_C_Sharph1_funcd:
 437              	.LVL33:
 438              	.LFB3584:
  47:enclosure_funcs.hpp **** CREATE_ENCLOSURE_FUNC(C_Sharph1, 0.625000000000000, 1.259032888041513e+03, 0.714354689134912, 0.944
 439              		.loc 7 47 1 is_stmt 1 view -0
 440              		.cfi_startproc
 441              		@ args = 0, pretend = 0, frame = 0
 442              		@ frame_needed = 0, uses_anonymous_args = 0
 443              		.loc 7 47 1 view .LVU69
 444              		.loc 7 47 1 view .LVU70
 445              		.loc 7 47 1 view .LVU71
 446 0000 9FED091B 		vldr.64	d1, .L32
 447 0004 08B5     		push	{r3, lr}
 448              		.cfi_def_cfa_offset 8
 449              		.cfi_offset 3, -8
 450              		.cfi_offset 14, -4
 451              		.loc 7 47 1 is_stmt 0 view .LVU72
 452 0006 FFF7FEFF 		bl	pow
 453              	.LVL34:
 454              		.loc 7 47 1 discriminator 1 view .LVU73
 455 000a 9FED097B 		vldr.64	d7, .L32+8
 456 000e 20EE070B 		vmul.f64	d0, d0, d7
 457 0012 FFF7FEFF 		bl	exp
 458              	.LVL35:
ARM GAS  C:\Users\Owner\AppData\Local\Temp\ccv0lMJk.s 			page 16


 459              		.loc 7 47 1 is_stmt 1 discriminator 2 view .LVU74
 460 0016 9FED086B 		vldr.64	d6, .L32+16
 461 001a 9FED097B 		vldr.64	d7, .L32+24
 462 001e 20EE060B 		vmul.f64	d0, d0, d6
 463              	.LVL36:
 464              		.loc 7 47 1 is_stmt 0 view .LVU75
 465 0022 20EE070B 		vmul.f64	d0, d0, d7
 466              	.LVL37:
 467              		.loc 7 47 1 view .LVU76
 468 0026 08BD     		pop	{r3, pc}
 469              	.L33:
 470              		.align	3
 471              	.L32:
 472 0028 4FFAE99F 		.word	-1612055985
 473 002c 363AEE3F 		.word	1072577078
 474 0030 A884725D 		.word	1567786152
 475 0034 FEDBE6BF 		.word	-1075389442
 476 0038 E91A67AD 		.word	-1385751831
 477 003c 21AC9340 		.word	1083419681
 478 0040 B4FF29FC 		.word	-64356428
 479 0044 09DC3B3F 		.word	1060887561
 480              		.cfi_endproc
 481              	.LFE3584:
 483              		.section	.text._Z24enclosure_C_Sharph2_funcd,"ax",%progbits
 484              		.align	1
 485              		.p2align 2,,3
 486              		.global	_Z24enclosure_C_Sharph2_funcd
 487              		.syntax unified
 488              		.thumb
 489              		.thumb_func
 491              	_Z24enclosure_C_Sharph2_funcd:
 492              	.LVL38:
 493              	.LFB3585:
  48:enclosure_funcs.hpp **** CREATE_ENCLOSURE_FUNC(C_Sharph2, 0.250000000000000, 1.248036212348208e+02, 1.118458189660454, 0.795
 494              		.loc 7 48 1 is_stmt 1 view -0
 495              		.cfi_startproc
 496              		@ args = 0, pretend = 0, frame = 0
 497              		@ frame_needed = 0, uses_anonymous_args = 0
 498              		.loc 7 48 1 view .LVU78
 499              		.loc 7 48 1 view .LVU79
 500              		.loc 7 48 1 view .LVU80
 501 0000 9FED091B 		vldr.64	d1, .L36
 502 0004 08B5     		push	{r3, lr}
 503              		.cfi_def_cfa_offset 8
 504              		.cfi_offset 3, -8
 505              		.cfi_offset 14, -4
 506              		.loc 7 48 1 is_stmt 0 view .LVU81
 507 0006 FFF7FEFF 		bl	pow
 508              	.LVL39:
 509              		.loc 7 48 1 discriminator 1 view .LVU82
 510 000a 9FED097B 		vldr.64	d7, .L36+8
 511 000e 20EE070B 		vmul.f64	d0, d0, d7
 512 0012 FFF7FEFF 		bl	exp
 513              	.LVL40:
 514              		.loc 7 48 1 is_stmt 1 discriminator 2 view .LVU83
 515 0016 9FED086B 		vldr.64	d6, .L36+16
 516 001a 9FED097B 		vldr.64	d7, .L36+24
ARM GAS  C:\Users\Owner\AppData\Local\Temp\ccv0lMJk.s 			page 17


 517 001e 20EE060B 		vmul.f64	d0, d0, d6
 518              	.LVL41:
 519              		.loc 7 48 1 is_stmt 0 view .LVU84
 520 0022 20EE070B 		vmul.f64	d0, d0, d7
 521              	.LVL42:
 522              		.loc 7 48 1 view .LVU85
 523 0026 08BD     		pop	{r3, pc}
 524              	.L37:
 525              		.align	3
 526              	.L36:
 527 0028 8B97DC48 		.word	1222416267
 528 002c 5B71E93F 		.word	1072263515
 529 0030 6C8F286A 		.word	1781043052
 530 0034 34E5F1BF 		.word	-1074666188
 531 0038 4B7BC287 		.word	-2017297589
 532 003c 6E335F40 		.word	1079980910
 533 0040 B4FF29FC 		.word	-64356428
 534 0044 09DC3B3F 		.word	1060887561
 535              		.cfi_endproc
 536              	.LFE3585:
 538              		.section	.text._Z24enclosure_C_Sharph3_funcd,"ax",%progbits
 539              		.align	1
 540              		.p2align 2,,3
 541              		.global	_Z24enclosure_C_Sharph3_funcd
 542              		.syntax unified
 543              		.thumb
 544              		.thumb_func
 546              	_Z24enclosure_C_Sharph3_funcd:
 547              	.LVL43:
 548              	.LFB3586:
  49:enclosure_funcs.hpp **** CREATE_ENCLOSURE_FUNC(C_Sharph3, 0.750000000000000, 54.534433357937587, 0.460659788407927, 1.059210
 549              		.loc 7 49 1 is_stmt 1 view -0
 550              		.cfi_startproc
 551              		@ args = 0, pretend = 0, frame = 0
 552              		@ frame_needed = 0, uses_anonymous_args = 0
 553              		.loc 7 49 1 view .LVU87
 554              		.loc 7 49 1 view .LVU88
 555              		.loc 7 49 1 view .LVU89
 556 0000 9FED091B 		vldr.64	d1, .L40
 557 0004 08B5     		push	{r3, lr}
 558              		.cfi_def_cfa_offset 8
 559              		.cfi_offset 3, -8
 560              		.cfi_offset 14, -4
 561              		.loc 7 49 1 is_stmt 0 view .LVU90
 562 0006 FFF7FEFF 		bl	pow
 563              	.LVL44:
 564              		.loc 7 49 1 discriminator 1 view .LVU91
 565 000a 9FED097B 		vldr.64	d7, .L40+8
 566 000e 20EE070B 		vmul.f64	d0, d0, d7
 567 0012 FFF7FEFF 		bl	exp
 568              	.LVL45:
 569              		.loc 7 49 1 is_stmt 1 discriminator 2 view .LVU92
 570 0016 9FED086B 		vldr.64	d6, .L40+16
 571 001a 9FED097B 		vldr.64	d7, .L40+24
 572 001e 20EE060B 		vmul.f64	d0, d0, d6
 573              	.LVL46:
 574              		.loc 7 49 1 is_stmt 0 view .LVU93
ARM GAS  C:\Users\Owner\AppData\Local\Temp\ccv0lMJk.s 			page 18


 575 0022 20EE070B 		vmul.f64	d0, d0, d7
 576              	.LVL47:
 577              		.loc 7 49 1 view .LVU94
 578 0026 08BD     		pop	{r3, pc}
 579              	.L41:
 580              		.align	3
 581              	.L40:
 582 0028 60ED7A67 		.word	1736109408
 583 002c 86F2F03F 		.word	1072755334
 584 0030 3ED67231 		.word	829609534
 585 0034 737BDDBF 		.word	-1076003981
 586 0038 E01DF14F 		.word	1341201888
 587 003c 68444B40 		.word	1078674536
 588 0040 B4FF29FC 		.word	-64356428
 589 0044 09DC3B3F 		.word	1060887561
 590              		.cfi_endproc
 591              	.LFE3586:
 593              		.section	.text._Z24enclosure_C_Sharph4_funcd,"ax",%progbits
 594              		.align	1
 595              		.p2align 2,,3
 596              		.global	_Z24enclosure_C_Sharph4_funcd
 597              		.syntax unified
 598              		.thumb
 599              		.thumb_func
 601              	_Z24enclosure_C_Sharph4_funcd:
 602              	.LVL48:
 603              	.LFB3587:
  50:enclosure_funcs.hpp **** CREATE_ENCLOSURE_FUNC(C_Sharph4, 0.125000000000000, 81.730583486353382, 1.037958309294973, 0.869080
 604              		.loc 7 50 1 is_stmt 1 view -0
 605              		.cfi_startproc
 606              		@ args = 0, pretend = 0, frame = 0
 607              		@ frame_needed = 0, uses_anonymous_args = 0
 608              		.loc 7 50 1 view .LVU96
 609              		.loc 7 50 1 view .LVU97
 610              		.loc 7 50 1 view .LVU98
 611 0000 9FED091B 		vldr.64	d1, .L44
 612 0004 08B5     		push	{r3, lr}
 613              		.cfi_def_cfa_offset 8
 614              		.cfi_offset 3, -8
 615              		.cfi_offset 14, -4
 616              		.loc 7 50 1 is_stmt 0 view .LVU99
 617 0006 FFF7FEFF 		bl	pow
 618              	.LVL49:
 619              		.loc 7 50 1 discriminator 1 view .LVU100
 620 000a 9FED097B 		vldr.64	d7, .L44+8
 621 000e 20EE070B 		vmul.f64	d0, d0, d7
 622 0012 FFF7FEFF 		bl	exp
 623              	.LVL50:
 624              		.loc 7 50 1 is_stmt 1 discriminator 2 view .LVU101
 625 0016 9FED086B 		vldr.64	d6, .L44+16
 626 001a 9FED097B 		vldr.64	d7, .L44+24
 627 001e 20EE060B 		vmul.f64	d0, d0, d6
 628              	.LVL51:
 629              		.loc 7 50 1 is_stmt 0 view .LVU102
 630 0022 20EE070B 		vmul.f64	d0, d0, d7
 631              	.LVL52:
 632              		.loc 7 50 1 view .LVU103
ARM GAS  C:\Users\Owner\AppData\Local\Temp\ccv0lMJk.s 			page 19


 633 0026 08BD     		pop	{r3, pc}
 634              	.L45:
 635              		.align	3
 636              	.L44:
 637 0028 03D6BAB4 		.word	-1262823933
 638 002c 82CFEB3F 		.word	1072418690
 639 0030 A688102C 		.word	739281062
 640 0034 7A9BF0BF 		.word	-1074750598
 641 0038 AB383DE1 		.word	-516081493
 642 003c C16E5440 		.word	1079275201
 643 0040 B4FF29FC 		.word	-64356428
 644 0044 09DC3B3F 		.word	1060887561
 645              		.cfi_endproc
 646              	.LFE3587:
 648              		.section	.text._Z17enclosure_Df_funcd,"ax",%progbits
 649              		.align	1
 650              		.p2align 2,,3
 651              		.global	_Z17enclosure_Df_funcd
 652              		.syntax unified
 653              		.thumb
 654              		.thumb_func
 656              	_Z17enclosure_Df_funcd:
 657              	.LVL53:
 658              	.LFB3588:
  51:enclosure_funcs.hpp **** 
  52:enclosure_funcs.hpp **** // D
  53:enclosure_funcs.hpp **** CREATE_ENCLOSURE_FUNC(Df, 0.125000000000000, 1.633133038294061e+03, 2.697844642280288, 0.4060759631
 659              		.loc 7 53 1 is_stmt 1 view -0
 660              		.cfi_startproc
 661              		@ args = 0, pretend = 0, frame = 0
 662              		@ frame_needed = 0, uses_anonymous_args = 0
 663              		.loc 7 53 1 view .LVU105
 664              		.loc 7 53 1 view .LVU106
 665              		.loc 7 53 1 view .LVU107
 666 0000 9FED091B 		vldr.64	d1, .L48
 667 0004 08B5     		push	{r3, lr}
 668              		.cfi_def_cfa_offset 8
 669              		.cfi_offset 3, -8
 670              		.cfi_offset 14, -4
 671              		.loc 7 53 1 is_stmt 0 view .LVU108
 672 0006 FFF7FEFF 		bl	pow
 673              	.LVL54:
 674              		.loc 7 53 1 discriminator 1 view .LVU109
 675 000a 9FED097B 		vldr.64	d7, .L48+8
 676 000e 20EE070B 		vmul.f64	d0, d0, d7
 677 0012 FFF7FEFF 		bl	exp
 678              	.LVL55:
 679              		.loc 7 53 1 is_stmt 1 discriminator 2 view .LVU110
 680 0016 9FED086B 		vldr.64	d6, .L48+16
 681 001a 9FED097B 		vldr.64	d7, .L48+24
 682 001e 20EE060B 		vmul.f64	d0, d0, d6
 683              	.LVL56:
 684              		.loc 7 53 1 is_stmt 0 view .LVU111
 685 0022 20EE070B 		vmul.f64	d0, d0, d7
 686              	.LVL57:
 687              		.loc 7 53 1 view .LVU112
 688 0026 08BD     		pop	{r3, pc}
ARM GAS  C:\Users\Owner\AppData\Local\Temp\ccv0lMJk.s 			page 20


 689              	.L49:
 690              		.align	3
 691              	.L48:
 692 0028 199F5B09 		.word	156999449
 693 002c 26FDD93F 		.word	1071250726
 694 0030 E1426292 		.word	-1839054111
 695 0034 2F9505C0 		.word	-1073375953
 696 0038 6EC8303B 		.word	993052782
 697 003c 88849940 		.word	1083802760
 698 0040 55258D28 		.word	680338773
 699 0044 8310443F 		.word	1061425283
 700              		.cfi_endproc
 701              	.LFE3588:
 703              		.section	.text._Z18enclosure_Dh1_funcd,"ax",%progbits
 704              		.align	1
 705              		.p2align 2,,3
 706              		.global	_Z18enclosure_Dh1_funcd
 707              		.syntax unified
 708              		.thumb
 709              		.thumb_func
 711              	_Z18enclosure_Dh1_funcd:
 712              	.LVL58:
 713              	.LFB3589:
  54:enclosure_funcs.hpp **** CREATE_ENCLOSURE_FUNC(Dh1, 0.250000000000000, 1.627888369752074e+03, 1.023938010569702, 0.844611219
 714              		.loc 7 54 1 is_stmt 1 view -0
 715              		.cfi_startproc
 716              		@ args = 0, pretend = 0, frame = 0
 717              		@ frame_needed = 0, uses_anonymous_args = 0
 718              		.loc 7 54 1 view .LVU114
 719              		.loc 7 54 1 view .LVU115
 720              		.loc 7 54 1 view .LVU116
 721 0000 9FED091B 		vldr.64	d1, .L52
 722 0004 08B5     		push	{r3, lr}
 723              		.cfi_def_cfa_offset 8
 724              		.cfi_offset 3, -8
 725              		.cfi_offset 14, -4
 726              		.loc 7 54 1 is_stmt 0 view .LVU117
 727 0006 FFF7FEFF 		bl	pow
 728              	.LVL59:
 729              		.loc 7 54 1 discriminator 1 view .LVU118
 730 000a 9FED097B 		vldr.64	d7, .L52+8
 731 000e 20EE070B 		vmul.f64	d0, d0, d7
 732 0012 FFF7FEFF 		bl	exp
 733              	.LVL60:
 734              		.loc 7 54 1 is_stmt 1 discriminator 2 view .LVU119
 735 0016 9FED086B 		vldr.64	d6, .L52+16
 736 001a 9FED097B 		vldr.64	d7, .L52+24
 737 001e 20EE060B 		vmul.f64	d0, d0, d6
 738              	.LVL61:
 739              		.loc 7 54 1 is_stmt 0 view .LVU120
 740 0022 20EE070B 		vmul.f64	d0, d0, d7
 741              	.LVL62:
 742              		.loc 7 54 1 view .LVU121
 743 0026 08BD     		pop	{r3, pc}
 744              	.L53:
 745              		.align	3
 746              	.L52:
ARM GAS  C:\Users\Owner\AppData\Local\Temp\ccv0lMJk.s 			page 21


 747 0028 2097A71B 		.word	463968032
 748 002c 0E07EB3F 		.word	1072367374
 749 0030 6573C8D2 		.word	-758615195
 750 0034 0C62F0BF 		.word	-1074765300
 751 0038 A7DFCCB0 		.word	-1328750681
 752 003c 8D6F9940 		.word	1083797389
 753 0040 55258D28 		.word	680338773
 754 0044 8310443F 		.word	1061425283
 755              		.cfi_endproc
 756              	.LFE3589:
 758              		.section	.text._Z18enclosure_Dh2_funcd,"ax",%progbits
 759              		.align	1
 760              		.p2align 2,,3
 761              		.global	_Z18enclosure_Dh2_funcd
 762              		.syntax unified
 763              		.thumb
 764              		.thumb_func
 766              	_Z18enclosure_Dh2_funcd:
 767              	.LVL63:
 768              	.LFB3590:
  55:enclosure_funcs.hpp **** CREATE_ENCLOSURE_FUNC(Dh2, 0.125000000000000, 3.610722556866332e+02, 1.643032088083645, 0.667919978
 769              		.loc 7 55 1 is_stmt 1 view -0
 770              		.cfi_startproc
 771              		@ args = 0, pretend = 0, frame = 0
 772              		@ frame_needed = 0, uses_anonymous_args = 0
 773              		.loc 7 55 1 view .LVU123
 774              		.loc 7 55 1 view .LVU124
 775              		.loc 7 55 1 view .LVU125
 776 0000 9FED091B 		vldr.64	d1, .L56
 777 0004 08B5     		push	{r3, lr}
 778              		.cfi_def_cfa_offset 8
 779              		.cfi_offset 3, -8
 780              		.cfi_offset 14, -4
 781              		.loc 7 55 1 is_stmt 0 view .LVU126
 782 0006 FFF7FEFF 		bl	pow
 783              	.LVL64:
 784              		.loc 7 55 1 discriminator 1 view .LVU127
 785 000a 9FED097B 		vldr.64	d7, .L56+8
 786 000e 20EE070B 		vmul.f64	d0, d0, d7
 787 0012 FFF7FEFF 		bl	exp
 788              	.LVL65:
 789              		.loc 7 55 1 is_stmt 1 discriminator 2 view .LVU128
 790 0016 9FED086B 		vldr.64	d6, .L56+16
 791 001a 9FED097B 		vldr.64	d7, .L56+24
 792 001e 20EE060B 		vmul.f64	d0, d0, d6
 793              	.LVL66:
 794              		.loc 7 55 1 is_stmt 0 view .LVU129
 795 0022 20EE070B 		vmul.f64	d0, d0, d7
 796              	.LVL67:
 797              		.loc 7 55 1 view .LVU130
 798 0026 08BD     		pop	{r3, pc}
 799              	.L57:
 800              		.align	3
 801              	.L56:
 802 0028 AAD01AB8 		.word	-1206202198
 803 002c 995FE53F 		.word	1071996825
 804 0030 C890C903 		.word	63541448
ARM GAS  C:\Users\Owner\AppData\Local\Temp\ccv0lMJk.s 			page 22


 805 0034 DC49FABF 		.word	-1074116132
 806 0038 A23094F5 		.word	-174837598
 807 003c 27917640 		.word	1081512231
 808 0040 55258D28 		.word	680338773
 809 0044 8310443F 		.word	1061425283
 810              		.cfi_endproc
 811              	.LFE3590:
 813              		.section	.text._Z18enclosure_Dh3_funcd,"ax",%progbits
 814              		.align	1
 815              		.p2align 2,,3
 816              		.global	_Z18enclosure_Dh3_funcd
 817              		.syntax unified
 818              		.thumb
 819              		.thumb_func
 821              	_Z18enclosure_Dh3_funcd:
 822              	.LVL68:
 823              	.LFB3591:
  56:enclosure_funcs.hpp **** CREATE_ENCLOSURE_FUNC(Dh3, 0.250000000000000, 1.557783963667714e+02, 0.993245973671336, 0.753699315
 824              		.loc 7 56 1 is_stmt 1 view -0
 825              		.cfi_startproc
 826              		@ args = 0, pretend = 0, frame = 0
 827              		@ frame_needed = 0, uses_anonymous_args = 0
 828              		.loc 7 56 1 view .LVU132
 829              		.loc 7 56 1 view .LVU133
 830              		.loc 7 56 1 view .LVU134
 831 0000 9FED091B 		vldr.64	d1, .L60
 832 0004 08B5     		push	{r3, lr}
 833              		.cfi_def_cfa_offset 8
 834              		.cfi_offset 3, -8
 835              		.cfi_offset 14, -4
 836              		.loc 7 56 1 is_stmt 0 view .LVU135
 837 0006 FFF7FEFF 		bl	pow
 838              	.LVL69:
 839              		.loc 7 56 1 discriminator 1 view .LVU136
 840 000a 9FED097B 		vldr.64	d7, .L60+8
 841 000e 20EE070B 		vmul.f64	d0, d0, d7
 842 0012 FFF7FEFF 		bl	exp
 843              	.LVL70:
 844              		.loc 7 56 1 is_stmt 1 discriminator 2 view .LVU137
 845 0016 9FED086B 		vldr.64	d6, .L60+16
 846 001a 9FED097B 		vldr.64	d7, .L60+24
 847 001e 20EE060B 		vmul.f64	d0, d0, d6
 848              	.LVL71:
 849              		.loc 7 56 1 is_stmt 0 view .LVU138
 850 0022 20EE070B 		vmul.f64	d0, d0, d7
 851              	.LVL72:
 852              		.loc 7 56 1 view .LVU139
 853 0026 08BD     		pop	{r3, pc}
 854              	.L61:
 855              		.align	3
 856              	.L60:
 857 0028 EE94B306 		.word	112432366
 858 002c 4E1EE83F 		.word	1072176718
 859 0030 85AAB9C7 		.word	-944133499
 860 0034 ABC8EFBF 		.word	-1074804565
 861 0038 78537F9F 		.word	-1619045512
 862 003c E8786340 		.word	1080260840
ARM GAS  C:\Users\Owner\AppData\Local\Temp\ccv0lMJk.s 			page 23


 863 0040 55258D28 		.word	680338773
 864 0044 8310443F 		.word	1061425283
 865              		.cfi_endproc
 866              	.LFE3591:
 868              		.section	.text._Z18enclosure_Dh4_funcd,"ax",%progbits
 869              		.align	1
 870              		.p2align 2,,3
 871              		.global	_Z18enclosure_Dh4_funcd
 872              		.syntax unified
 873              		.thumb
 874              		.thumb_func
 876              	_Z18enclosure_Dh4_funcd:
 877              	.LVL73:
 878              	.LFB3592:
  57:enclosure_funcs.hpp **** CREATE_ENCLOSURE_FUNC(Dh4, 0.125000000000000, 2.007835713218313e+02, 1.669545666177049, 0.621320552
 879              		.loc 7 57 1 is_stmt 1 view -0
 880              		.cfi_startproc
 881              		@ args = 0, pretend = 0, frame = 0
 882              		@ frame_needed = 0, uses_anonymous_args = 0
 883              		.loc 7 57 1 view .LVU141
 884              		.loc 7 57 1 view .LVU142
 885              		.loc 7 57 1 view .LVU143
 886 0000 9FED091B 		vldr.64	d1, .L64
 887 0004 08B5     		push	{r3, lr}
 888              		.cfi_def_cfa_offset 8
 889              		.cfi_offset 3, -8
 890              		.cfi_offset 14, -4
 891              		.loc 7 57 1 is_stmt 0 view .LVU144
 892 0006 FFF7FEFF 		bl	pow
 893              	.LVL74:
 894              		.loc 7 57 1 discriminator 1 view .LVU145
 895 000a 9FED097B 		vldr.64	d7, .L64+8
 896 000e 20EE070B 		vmul.f64	d0, d0, d7
 897 0012 FFF7FEFF 		bl	exp
 898              	.LVL75:
 899              		.loc 7 57 1 is_stmt 1 discriminator 2 view .LVU146
 900 0016 9FED086B 		vldr.64	d6, .L64+16
 901 001a 9FED097B 		vldr.64	d7, .L64+24
 902 001e 20EE060B 		vmul.f64	d0, d0, d6
 903              	.LVL76:
 904              		.loc 7 57 1 is_stmt 0 view .LVU147
 905 0022 20EE070B 		vmul.f64	d0, d0, d7
 906              	.LVL77:
 907              		.loc 7 57 1 view .LVU148
 908 0026 08BD     		pop	{r3, pc}
 909              	.L65:
 910              		.align	3
 911              	.L64:
 912 0028 1DA994A3 		.word	-1550538467
 913 002c DBE1E33F 		.word	1071899099
 914 0030 188B3684 		.word	-2076800232
 915 0034 75B6FABF 		.word	-1074088331
 916 0038 2A2B2A04 		.word	69872426
 917 003c 13196940 		.word	1080629523
 918 0040 55258D28 		.word	680338773
 919 0044 8310443F 		.word	1061425283
 920              		.cfi_endproc
ARM GAS  C:\Users\Owner\AppData\Local\Temp\ccv0lMJk.s 			page 24


 921              	.LFE3592:
 923              		.section	.text._Z23enclosure_D_Sharpf_funcd,"ax",%progbits
 924              		.align	1
 925              		.p2align 2,,3
 926              		.global	_Z23enclosure_D_Sharpf_funcd
 927              		.syntax unified
 928              		.thumb
 929              		.thumb_func
 931              	_Z23enclosure_D_Sharpf_funcd:
 932              	.LVL78:
 933              	.LFB3593:
  58:enclosure_funcs.hpp **** 
  59:enclosure_funcs.hpp **** // D#
  60:enclosure_funcs.hpp **** CREATE_ENCLOSURE_FUNC(D_Sharpf, 0.125000000000000, 5.850430538979119e+02, 1.154968138140959, 0.6797
 934              		.loc 7 60 1 is_stmt 1 view -0
 935              		.cfi_startproc
 936              		@ args = 0, pretend = 0, frame = 0
 937              		@ frame_needed = 0, uses_anonymous_args = 0
 938              		.loc 7 60 1 view .LVU150
 939              		.loc 7 60 1 view .LVU151
 940              		.loc 7 60 1 view .LVU152
 941 0000 9FED091B 		vldr.64	d1, .L68
 942 0004 08B5     		push	{r3, lr}
 943              		.cfi_def_cfa_offset 8
 944              		.cfi_offset 3, -8
 945              		.cfi_offset 14, -4
 946              		.loc 7 60 1 is_stmt 0 view .LVU153
 947 0006 FFF7FEFF 		bl	pow
 948              	.LVL79:
 949              		.loc 7 60 1 discriminator 1 view .LVU154
 950 000a 9FED097B 		vldr.64	d7, .L68+8
 951 000e 20EE070B 		vmul.f64	d0, d0, d7
 952 0012 FFF7FEFF 		bl	exp
 953              	.LVL80:
 954              		.loc 7 60 1 is_stmt 1 discriminator 2 view .LVU155
 955 0016 9FED086B 		vldr.64	d6, .L68+16
 956 001a 9FED097B 		vldr.64	d7, .L68+24
 957 001e 20EE060B 		vmul.f64	d0, d0, d6
 958              	.LVL81:
 959              		.loc 7 60 1 is_stmt 0 view .LVU156
 960 0022 20EE070B 		vmul.f64	d0, d0, d7
 961              	.LVL82:
 962              		.loc 7 60 1 view .LVU157
 963 0026 08BD     		pop	{r3, pc}
 964              	.L69:
 965              		.align	3
 966              	.L68:
 967 0028 4F188F57 		.word	1468995663
 968 002c 2DC0E53F 		.word	1072021549
 969 0030 83CCD3DE 		.word	-556544893
 970 0034 BF7AF2BF 		.word	-1074627905
 971 0038 FA5BA42C 		.word	748968954
 972 003c 58488240 		.word	1082280024
 973 0040 63B9BE52 		.word	1388231011
 974 0044 C52B413F 		.word	1061235653
 975              		.cfi_endproc
 976              	.LFE3593:
ARM GAS  C:\Users\Owner\AppData\Local\Temp\ccv0lMJk.s 			page 25


 978              		.section	.text._Z24enclosure_D_Sharph1_funcd,"ax",%progbits
 979              		.align	1
 980              		.p2align 2,,3
 981              		.global	_Z24enclosure_D_Sharph1_funcd
 982              		.syntax unified
 983              		.thumb
 984              		.thumb_func
 986              	_Z24enclosure_D_Sharph1_funcd:
 987              	.LVL83:
 988              	.LFB3594:
  61:enclosure_funcs.hpp **** CREATE_ENCLOSURE_FUNC(D_Sharph1, 0.125000000000000, 1.908336078795950e+03, 1.658215633087814, 0.584
 989              		.loc 7 61 1 is_stmt 1 view -0
 990              		.cfi_startproc
 991              		@ args = 0, pretend = 0, frame = 0
 992              		@ frame_needed = 0, uses_anonymous_args = 0
 993              		.loc 7 61 1 view .LVU159
 994              		.loc 7 61 1 view .LVU160
 995              		.loc 7 61 1 view .LVU161
 996 0000 9FED091B 		vldr.64	d1, .L72
 997 0004 08B5     		push	{r3, lr}
 998              		.cfi_def_cfa_offset 8
 999              		.cfi_offset 3, -8
 1000              		.cfi_offset 14, -4
 1001              		.loc 7 61 1 is_stmt 0 view .LVU162
 1002 0006 FFF7FEFF 		bl	pow
 1003              	.LVL84:
 1004              		.loc 7 61 1 discriminator 1 view .LVU163
 1005 000a 9FED097B 		vldr.64	d7, .L72+8
 1006 000e 20EE070B 		vmul.f64	d0, d0, d7
 1007 0012 FFF7FEFF 		bl	exp
 1008              	.LVL85:
 1009              		.loc 7 61 1 is_stmt 1 discriminator 2 view .LVU164
 1010 0016 9FED086B 		vldr.64	d6, .L72+16
 1011 001a 9FED097B 		vldr.64	d7, .L72+24
 1012 001e 20EE060B 		vmul.f64	d0, d0, d6
 1013              	.LVL86:
 1014              		.loc 7 61 1 is_stmt 0 view .LVU165
 1015 0022 20EE070B 		vmul.f64	d0, d0, d7
 1016              	.LVL87:
 1017              		.loc 7 61 1 view .LVU166
 1018 0026 08BD     		pop	{r3, pc}
 1019              	.L73:
 1020              		.align	3
 1021              	.L72:
 1022 0028 FE773378 		.word	2016638974
 1023 002c 4EB5E23F 		.word	1071822158
 1024 0030 E23F9D1D 		.word	496844770
 1025 0034 0D88FABF 		.word	-1074100211
 1026 0038 F0350A25 		.word	621426160
 1027 003c 58D19D40 		.word	1084084568
 1028 0040 63B9BE52 		.word	1388231011
 1029 0044 C52B413F 		.word	1061235653
 1030              		.cfi_endproc
 1031              	.LFE3594:
 1033              		.section	.text._Z24enclosure_D_Sharph2_funcd,"ax",%progbits
 1034              		.align	1
 1035              		.p2align 2,,3
ARM GAS  C:\Users\Owner\AppData\Local\Temp\ccv0lMJk.s 			page 26


 1036              		.global	_Z24enclosure_D_Sharph2_funcd
 1037              		.syntax unified
 1038              		.thumb
 1039              		.thumb_func
 1041              	_Z24enclosure_D_Sharph2_funcd:
 1042              	.LVL88:
 1043              	.LFB3595:
  62:enclosure_funcs.hpp **** CREATE_ENCLOSURE_FUNC(D_Sharph2, 0.250000000000000, 1.264681837740925e+02, 1.146896147876501, 0.797
 1044              		.loc 7 62 1 is_stmt 1 view -0
 1045              		.cfi_startproc
 1046              		@ args = 0, pretend = 0, frame = 0
 1047              		@ frame_needed = 0, uses_anonymous_args = 0
 1048              		.loc 7 62 1 view .LVU168
 1049              		.loc 7 62 1 view .LVU169
 1050              		.loc 7 62 1 view .LVU170
 1051 0000 9FED091B 		vldr.64	d1, .L76
 1052 0004 08B5     		push	{r3, lr}
 1053              		.cfi_def_cfa_offset 8
 1054              		.cfi_offset 3, -8
 1055              		.cfi_offset 14, -4
 1056              		.loc 7 62 1 is_stmt 0 view .LVU171
 1057 0006 FFF7FEFF 		bl	pow
 1058              	.LVL89:
 1059              		.loc 7 62 1 discriminator 1 view .LVU172
 1060 000a 9FED097B 		vldr.64	d7, .L76+8
 1061 000e 20EE070B 		vmul.f64	d0, d0, d7
 1062 0012 FFF7FEFF 		bl	exp
 1063              	.LVL90:
 1064              		.loc 7 62 1 is_stmt 1 discriminator 2 view .LVU173
 1065 0016 9FED086B 		vldr.64	d6, .L76+16
 1066 001a 9FED097B 		vldr.64	d7, .L76+24
 1067 001e 20EE060B 		vmul.f64	d0, d0, d6
 1068              	.LVL91:
 1069              		.loc 7 62 1 is_stmt 0 view .LVU174
 1070 0022 20EE070B 		vmul.f64	d0, d0, d7
 1071              	.LVL92:
 1072              		.loc 7 62 1 view .LVU175
 1073 0026 08BD     		pop	{r3, pc}
 1074              	.L77:
 1075              		.align	3
 1076              	.L76:
 1077 0028 D6C9EE63 		.word	1676593622
 1078 002c 8987E93F 		.word	1072269193
 1079 0030 739B70C6 		.word	-965698701
 1080 0034 AF59F2BF 		.word	-1074636369
 1081 0038 B08F13B9 		.word	-1189900368
 1082 003c F69D5F40 		.word	1080008182
 1083 0040 63B9BE52 		.word	1388231011
 1084 0044 C52B413F 		.word	1061235653
 1085              		.cfi_endproc
 1086              	.LFE3595:
 1088              		.section	.text._Z24enclosure_D_Sharph3_funcd,"ax",%progbits
 1089              		.align	1
 1090              		.p2align 2,,3
 1091              		.global	_Z24enclosure_D_Sharph3_funcd
 1092              		.syntax unified
 1093              		.thumb
ARM GAS  C:\Users\Owner\AppData\Local\Temp\ccv0lMJk.s 			page 27


 1094              		.thumb_func
 1096              	_Z24enclosure_D_Sharph3_funcd:
 1097              	.LVL93:
 1098              	.LFB3596:
  63:enclosure_funcs.hpp **** CREATE_ENCLOSURE_FUNC(D_Sharph3, 0.125000000000000, 1.508574329168667e+02, 1.300411453004516, 0.591
 1099              		.loc 7 63 1 is_stmt 1 view -0
 1100              		.cfi_startproc
 1101              		@ args = 0, pretend = 0, frame = 0
 1102              		@ frame_needed = 0, uses_anonymous_args = 0
 1103              		.loc 7 63 1 view .LVU177
 1104              		.loc 7 63 1 view .LVU178
 1105              		.loc 7 63 1 view .LVU179
 1106 0000 9FED091B 		vldr.64	d1, .L80
 1107 0004 08B5     		push	{r3, lr}
 1108              		.cfi_def_cfa_offset 8
 1109              		.cfi_offset 3, -8
 1110              		.cfi_offset 14, -4
 1111              		.loc 7 63 1 is_stmt 0 view .LVU180
 1112 0006 FFF7FEFF 		bl	pow
 1113              	.LVL94:
 1114              		.loc 7 63 1 discriminator 1 view .LVU181
 1115 000a 9FED097B 		vldr.64	d7, .L80+8
 1116 000e 20EE070B 		vmul.f64	d0, d0, d7
 1117 0012 FFF7FEFF 		bl	exp
 1118              	.LVL95:
 1119              		.loc 7 63 1 is_stmt 1 discriminator 2 view .LVU182
 1120 0016 9FED086B 		vldr.64	d6, .L80+16
 1121 001a 9FED097B 		vldr.64	d7, .L80+24
 1122 001e 20EE060B 		vmul.f64	d0, d0, d6
 1123              	.LVL96:
 1124              		.loc 7 63 1 is_stmt 0 view .LVU183
 1125 0022 20EE070B 		vmul.f64	d0, d0, d7
 1126              	.LVL97:
 1127              		.loc 7 63 1 view .LVU184
 1128 0026 08BD     		pop	{r3, pc}
 1129              	.L81:
 1130              		.align	3
 1131              	.L80:
 1132 0028 2020E6EF 		.word	-270131168
 1133 002c 8AEDE23F 		.word	1071836554
 1134 0030 C8F85F3D 		.word	1029699784
 1135 0034 7CCEF4BF 		.word	-1074475396
 1136 0038 9B0E2817 		.word	388501147
 1137 003c 70DB6240 		.word	1080220528
 1138 0040 63B9BE52 		.word	1388231011
 1139 0044 C52B413F 		.word	1061235653
 1140              		.cfi_endproc
 1141              	.LFE3596:
 1143              		.section	.text._Z24enclosure_D_Sharph4_funcd,"ax",%progbits
 1144              		.align	1
 1145              		.p2align 2,,3
 1146              		.global	_Z24enclosure_D_Sharph4_funcd
 1147              		.syntax unified
 1148              		.thumb
 1149              		.thumb_func
 1151              	_Z24enclosure_D_Sharph4_funcd:
 1152              	.LVL98:
ARM GAS  C:\Users\Owner\AppData\Local\Temp\ccv0lMJk.s 			page 28


 1153              	.LFB3597:
  64:enclosure_funcs.hpp **** CREATE_ENCLOSURE_FUNC(D_Sharph4, 0.125000000000000, 1.487177536857251e+02, 1.945838892279417, 0.595
 1154              		.loc 7 64 1 is_stmt 1 view -0
 1155              		.cfi_startproc
 1156              		@ args = 0, pretend = 0, frame = 0
 1157              		@ frame_needed = 0, uses_anonymous_args = 0
 1158              		.loc 7 64 1 view .LVU186
 1159              		.loc 7 64 1 view .LVU187
 1160              		.loc 7 64 1 view .LVU188
 1161 0000 9FED091B 		vldr.64	d1, .L84
 1162 0004 08B5     		push	{r3, lr}
 1163              		.cfi_def_cfa_offset 8
 1164              		.cfi_offset 3, -8
 1165              		.cfi_offset 14, -4
 1166              		.loc 7 64 1 is_stmt 0 view .LVU189
 1167 0006 FFF7FEFF 		bl	pow
 1168              	.LVL99:
 1169              		.loc 7 64 1 discriminator 1 view .LVU190
 1170 000a 9FED097B 		vldr.64	d7, .L84+8
 1171 000e 20EE070B 		vmul.f64	d0, d0, d7
 1172 0012 FFF7FEFF 		bl	exp
 1173              	.LVL100:
 1174              		.loc 7 64 1 is_stmt 1 discriminator 2 view .LVU191
 1175 0016 9FED086B 		vldr.64	d6, .L84+16
 1176 001a 9FED097B 		vldr.64	d7, .L84+24
 1177 001e 20EE060B 		vmul.f64	d0, d0, d6
 1178              	.LVL101:
 1179              		.loc 7 64 1 is_stmt 0 view .LVU192
 1180 0022 20EE070B 		vmul.f64	d0, d0, d7
 1181              	.LVL102:
 1182              		.loc 7 64 1 view .LVU193
 1183 0026 08BD     		pop	{r3, pc}
 1184              	.L85:
 1185              		.align	3
 1186              	.L84:
 1187 0028 CD671607 		.word	118908877
 1188 002c 4D0BE33F 		.word	1071844173
 1189 0030 D9FF59F6 		.word	-161873959
 1190 0034 2722FFBF 		.word	-1073798617
 1191 0038 BBD893D6 		.word	-694953797
 1192 003c F7966240 		.word	1080202999
 1193 0040 63B9BE52 		.word	1388231011
 1194 0044 C52B413F 		.word	1061235653
 1195              		.cfi_endproc
 1196              	.LFE3597:
 1198              		.section	.text._Z17enclosure_Ef_funcd,"ax",%progbits
 1199              		.align	1
 1200              		.p2align 2,,3
 1201              		.global	_Z17enclosure_Ef_funcd
 1202              		.syntax unified
 1203              		.thumb
 1204              		.thumb_func
 1206              	_Z17enclosure_Ef_funcd:
 1207              	.LVL103:
 1208              	.LFB3598:
  65:enclosure_funcs.hpp **** 
  66:enclosure_funcs.hpp **** // E
ARM GAS  C:\Users\Owner\AppData\Local\Temp\ccv0lMJk.s 			page 29


  67:enclosure_funcs.hpp **** CREATE_ENCLOSURE_FUNC(Ef, 0.250000000000000, 1.152045273677082e+03, 0.525426170388247, 0.9351140547
 1209              		.loc 7 67 1 is_stmt 1 view -0
 1210              		.cfi_startproc
 1211              		@ args = 0, pretend = 0, frame = 0
 1212              		@ frame_needed = 0, uses_anonymous_args = 0
 1213              		.loc 7 67 1 view .LVU195
 1214              		.loc 7 67 1 view .LVU196
 1215              		.loc 7 67 1 view .LVU197
 1216 0000 9FED091B 		vldr.64	d1, .L88
 1217 0004 08B5     		push	{r3, lr}
 1218              		.cfi_def_cfa_offset 8
 1219              		.cfi_offset 3, -8
 1220              		.cfi_offset 14, -4
 1221              		.loc 7 67 1 is_stmt 0 view .LVU198
 1222 0006 FFF7FEFF 		bl	pow
 1223              	.LVL104:
 1224              		.loc 7 67 1 discriminator 1 view .LVU199
 1225 000a 9FED097B 		vldr.64	d7, .L88+8
 1226 000e 20EE070B 		vmul.f64	d0, d0, d7
 1227 0012 FFF7FEFF 		bl	exp
 1228              	.LVL105:
 1229              		.loc 7 67 1 is_stmt 1 discriminator 2 view .LVU200
 1230 0016 9FED086B 		vldr.64	d6, .L88+16
 1231 001a 9FED097B 		vldr.64	d7, .L88+24
 1232 001e 20EE060B 		vmul.f64	d0, d0, d6
 1233              	.LVL106:
 1234              		.loc 7 67 1 is_stmt 0 view .LVU201
 1235 0022 20EE070B 		vmul.f64	d0, d0, d7
 1236              	.LVL107:
 1237              		.loc 7 67 1 view .LVU202
 1238 0026 08BD     		pop	{r3, pc}
 1239              	.L89:
 1240              		.align	3
 1241              	.L88:
 1242 0028 0724674F 		.word	1332159495
 1243 002c 74ECED3F 		.word	1072557172
 1244 0030 20F6488B 		.word	-1958152672
 1245 0034 4AD0E0BF 		.word	-1075785654
 1246 0038 BF09395C 		.word	1547241919
 1247 003c 2E009240 		.word	1083310126
 1248 0040 ABD8526F 		.word	1867700395
 1249 0044 9CBD403F 		.word	1061207452
 1250              		.cfi_endproc
 1251              	.LFE3598:
 1253              		.section	.text._Z18enclosure_Eh1_funcd,"ax",%progbits
 1254              		.align	1
 1255              		.p2align 2,,3
 1256              		.global	_Z18enclosure_Eh1_funcd
 1257              		.syntax unified
 1258              		.thumb
 1259              		.thumb_func
 1261              	_Z18enclosure_Eh1_funcd:
 1262              	.LVL108:
 1263              	.LFB3599:
  68:enclosure_funcs.hpp **** CREATE_ENCLOSURE_FUNC(Eh1, 0.250000000000000, 1.957389006097766e+03, 1.687848046930602, 0.532757794
 1264              		.loc 7 68 1 is_stmt 1 view -0
 1265              		.cfi_startproc
ARM GAS  C:\Users\Owner\AppData\Local\Temp\ccv0lMJk.s 			page 30


 1266              		@ args = 0, pretend = 0, frame = 0
 1267              		@ frame_needed = 0, uses_anonymous_args = 0
 1268              		.loc 7 68 1 view .LVU204
 1269              		.loc 7 68 1 view .LVU205
 1270              		.loc 7 68 1 view .LVU206
 1271 0000 9FED091B 		vldr.64	d1, .L92
 1272 0004 08B5     		push	{r3, lr}
 1273              		.cfi_def_cfa_offset 8
 1274              		.cfi_offset 3, -8
 1275              		.cfi_offset 14, -4
 1276              		.loc 7 68 1 is_stmt 0 view .LVU207
 1277 0006 FFF7FEFF 		bl	pow
 1278              	.LVL109:
 1279              		.loc 7 68 1 discriminator 1 view .LVU208
 1280 000a 9FED097B 		vldr.64	d7, .L92+8
 1281 000e 20EE070B 		vmul.f64	d0, d0, d7
 1282 0012 FFF7FEFF 		bl	exp
 1283              	.LVL110:
 1284              		.loc 7 68 1 is_stmt 1 discriminator 2 view .LVU209
 1285 0016 9FED086B 		vldr.64	d6, .L92+16
 1286 001a 9FED097B 		vldr.64	d7, .L92+24
 1287 001e 20EE060B 		vmul.f64	d0, d0, d6
 1288              	.LVL111:
 1289              		.loc 7 68 1 is_stmt 0 view .LVU210
 1290 0022 20EE070B 		vmul.f64	d0, d0, d7
 1291              	.LVL112:
 1292              		.loc 7 68 1 view .LVU211
 1293 0026 08BD     		pop	{r3, pc}
 1294              	.L93:
 1295              		.align	3
 1296              	.L92:
 1297 0028 A1A70913 		.word	319399841
 1298 002c 5A0CE13F 		.word	1071713370
 1299 0030 57F322F4 		.word	-199036073
 1300 0034 6C01FBBF 		.word	-1074069140
 1301 0038 664F9D57 		.word	1469927270
 1302 003c 8E959E40 		.word	1084134798
 1303 0040 ABD8526F 		.word	1867700395
 1304 0044 9CBD403F 		.word	1061207452
 1305              		.cfi_endproc
 1306              	.LFE3599:
 1308              		.section	.text._Z18enclosure_Eh2_funcd,"ax",%progbits
 1309              		.align	1
 1310              		.p2align 2,,3
 1311              		.global	_Z18enclosure_Eh2_funcd
 1312              		.syntax unified
 1313              		.thumb
 1314              		.thumb_func
 1316              	_Z18enclosure_Eh2_funcd:
 1317              	.LVL113:
 1318              	.LFB3600:
  69:enclosure_funcs.hpp **** CREATE_ENCLOSURE_FUNC(Eh2, 0.125000000000000, 6.199247564192682e+02, 0.952562065585760, 0.768543029
 1319              		.loc 7 69 1 is_stmt 1 view -0
 1320              		.cfi_startproc
 1321              		@ args = 0, pretend = 0, frame = 0
 1322              		@ frame_needed = 0, uses_anonymous_args = 0
 1323              		.loc 7 69 1 view .LVU213
ARM GAS  C:\Users\Owner\AppData\Local\Temp\ccv0lMJk.s 			page 31


 1324              		.loc 7 69 1 view .LVU214
 1325              		.loc 7 69 1 view .LVU215
 1326 0000 9FED091B 		vldr.64	d1, .L96
 1327 0004 08B5     		push	{r3, lr}
 1328              		.cfi_def_cfa_offset 8
 1329              		.cfi_offset 3, -8
 1330              		.cfi_offset 14, -4
 1331              		.loc 7 69 1 is_stmt 0 view .LVU216
 1332 0006 FFF7FEFF 		bl	pow
 1333              	.LVL114:
 1334              		.loc 7 69 1 discriminator 1 view .LVU217
 1335 000a 9FED097B 		vldr.64	d7, .L96+8
 1336 000e 20EE070B 		vmul.f64	d0, d0, d7
 1337 0012 FFF7FEFF 		bl	exp
 1338              	.LVL115:
 1339              		.loc 7 69 1 is_stmt 1 discriminator 2 view .LVU218
 1340 0016 9FED086B 		vldr.64	d6, .L96+16
 1341 001a 9FED097B 		vldr.64	d7, .L96+24
 1342 001e 20EE060B 		vmul.f64	d0, d0, d6
 1343              	.LVL116:
 1344              		.loc 7 69 1 is_stmt 0 view .LVU219
 1345 0022 20EE070B 		vmul.f64	d0, d0, d7
 1346              	.LVL117:
 1347              		.loc 7 69 1 view .LVU220
 1348 0026 08BD     		pop	{r3, pc}
 1349              	.L97:
 1350              		.align	3
 1351              	.L96:
 1352 0028 B5A12E8D 		.word	-1926323787
 1353 002c E797E83F 		.word	1072207847
 1354 0030 C53BE370 		.word	1893940165
 1355 0034 637BEEBF 		.word	-1074889885
 1356 0038 2F8CB1E6 		.word	-424571857
 1357 003c 655F8340 		.word	1082351461
 1358 0040 ABD8526F 		.word	1867700395
 1359 0044 9CBD403F 		.word	1061207452
 1360              		.cfi_endproc
 1361              	.LFE3600:
 1363              		.section	.text._Z18enclosure_Eh3_funcd,"ax",%progbits
 1364              		.align	1
 1365              		.p2align 2,,3
 1366              		.global	_Z18enclosure_Eh3_funcd
 1367              		.syntax unified
 1368              		.thumb
 1369              		.thumb_func
 1371              	_Z18enclosure_Eh3_funcd:
 1372              	.LVL118:
 1373              	.LFB3601:
  70:enclosure_funcs.hpp **** CREATE_ENCLOSURE_FUNC(Eh3, 0.125000000000000, 1.797516987129083e+02, 1.091646466388906, 0.806866968
 1374              		.loc 7 70 1 is_stmt 1 view -0
 1375              		.cfi_startproc
 1376              		@ args = 0, pretend = 0, frame = 0
 1377              		@ frame_needed = 0, uses_anonymous_args = 0
 1378              		.loc 7 70 1 view .LVU222
 1379              		.loc 7 70 1 view .LVU223
 1380              		.loc 7 70 1 view .LVU224
 1381 0000 9FED091B 		vldr.64	d1, .L100
ARM GAS  C:\Users\Owner\AppData\Local\Temp\ccv0lMJk.s 			page 32


 1382 0004 08B5     		push	{r3, lr}
 1383              		.cfi_def_cfa_offset 8
 1384              		.cfi_offset 3, -8
 1385              		.cfi_offset 14, -4
 1386              		.loc 7 70 1 is_stmt 0 view .LVU225
 1387 0006 FFF7FEFF 		bl	pow
 1388              	.LVL119:
 1389              		.loc 7 70 1 discriminator 1 view .LVU226
 1390 000a 9FED097B 		vldr.64	d7, .L100+8
 1391 000e 20EE070B 		vmul.f64	d0, d0, d7
 1392 0012 FFF7FEFF 		bl	exp
 1393              	.LVL120:
 1394              		.loc 7 70 1 is_stmt 1 discriminator 2 view .LVU227
 1395 0016 9FED086B 		vldr.64	d6, .L100+16
 1396 001a 9FED097B 		vldr.64	d7, .L100+24
 1397 001e 20EE060B 		vmul.f64	d0, d0, d6
 1398              	.LVL121:
 1399              		.loc 7 70 1 is_stmt 0 view .LVU228
 1400 0022 20EE070B 		vmul.f64	d0, d0, d7
 1401              	.LVL122:
 1402              		.loc 7 70 1 view .LVU229
 1403 0026 08BD     		pop	{r3, pc}
 1404              	.L101:
 1405              		.align	3
 1406              	.L100:
 1407 0028 461FFFAC 		.word	-1392566458
 1408 002c DAD1E93F 		.word	1072288218
 1409 0030 F4F2FE48 		.word	1224667892
 1410 0034 6277F1BF 		.word	-1074694302
 1411 0038 5E8C75EA 		.word	-361395106
 1412 003c 0D786640 		.word	1080457229
 1413 0040 ABD8526F 		.word	1867700395
 1414 0044 9CBD403F 		.word	1061207452
 1415              		.cfi_endproc
 1416              	.LFE3601:
 1418              		.section	.text._Z18enclosure_Eh4_funcd,"ax",%progbits
 1419              		.align	1
 1420              		.p2align 2,,3
 1421              		.global	_Z18enclosure_Eh4_funcd
 1422              		.syntax unified
 1423              		.thumb
 1424              		.thumb_func
 1426              	_Z18enclosure_Eh4_funcd:
 1427              	.LVL123:
 1428              	.LFB3602:
  71:enclosure_funcs.hpp **** CREATE_ENCLOSURE_FUNC(Eh4, 0.125000000000000, 2.325209117869809e+02, 1.562871826588353, 0.698651635
 1429              		.loc 7 71 1 is_stmt 1 view -0
 1430              		.cfi_startproc
 1431              		@ args = 0, pretend = 0, frame = 0
 1432              		@ frame_needed = 0, uses_anonymous_args = 0
 1433              		.loc 7 71 1 view .LVU231
 1434              		.loc 7 71 1 view .LVU232
 1435              		.loc 7 71 1 view .LVU233
 1436 0000 9FED091B 		vldr.64	d1, .L104
 1437 0004 08B5     		push	{r3, lr}
 1438              		.cfi_def_cfa_offset 8
 1439              		.cfi_offset 3, -8
ARM GAS  C:\Users\Owner\AppData\Local\Temp\ccv0lMJk.s 			page 33


 1440              		.cfi_offset 14, -4
 1441              		.loc 7 71 1 is_stmt 0 view .LVU234
 1442 0006 FFF7FEFF 		bl	pow
 1443              	.LVL124:
 1444              		.loc 7 71 1 discriminator 1 view .LVU235
 1445 000a 9FED097B 		vldr.64	d7, .L104+8
 1446 000e 20EE070B 		vmul.f64	d0, d0, d7
 1447 0012 FFF7FEFF 		bl	exp
 1448              	.LVL125:
 1449              		.loc 7 71 1 is_stmt 1 discriminator 2 view .LVU236
 1450 0016 9FED086B 		vldr.64	d6, .L104+16
 1451 001a 9FED097B 		vldr.64	d7, .L104+24
 1452 001e 20EE060B 		vmul.f64	d0, d0, d6
 1453              	.LVL126:
 1454              		.loc 7 71 1 is_stmt 0 view .LVU237
 1455 0022 20EE070B 		vmul.f64	d0, d0, d7
 1456              	.LVL127:
 1457              		.loc 7 71 1 view .LVU238
 1458 0026 08BD     		pop	{r3, pc}
 1459              	.L105:
 1460              		.align	3
 1461              	.L104:
 1462 0028 DE51B6AC 		.word	-1397337634
 1463 002c 5A5BE63F 		.word	1072061274
 1464 0030 919670E3 		.word	-479160687
 1465 0034 8501F9BF 		.word	-1074200187
 1466 0038 E225324F 		.word	1328686562
 1467 003c AB106D40 		.word	1080889515
 1468 0040 ABD8526F 		.word	1867700395
 1469 0044 9CBD403F 		.word	1061207452
 1470              		.cfi_endproc
 1471              	.LFE3602:
 1473              		.section	.text._Z17enclosure_Ff_funcd,"ax",%progbits
 1474              		.align	1
 1475              		.p2align 2,,3
 1476              		.global	_Z17enclosure_Ff_funcd
 1477              		.syntax unified
 1478              		.thumb
 1479              		.thumb_func
 1481              	_Z17enclosure_Ff_funcd:
 1482              	.LVL128:
 1483              	.LFB3603:
  72:enclosure_funcs.hpp **** 
  73:enclosure_funcs.hpp **** // F
  74:enclosure_funcs.hpp **** CREATE_ENCLOSURE_FUNC(Ff, 0.125000000000000, 1.432512666986376e+03, 0.710026365652786, 0.9324275636
 1484              		.loc 7 74 1 is_stmt 1 view -0
 1485              		.cfi_startproc
 1486              		@ args = 0, pretend = 0, frame = 0
 1487              		@ frame_needed = 0, uses_anonymous_args = 0
 1488              		.loc 7 74 1 view .LVU240
 1489              		.loc 7 74 1 view .LVU241
 1490              		.loc 7 74 1 view .LVU242
 1491 0000 9FED091B 		vldr.64	d1, .L108
 1492 0004 08B5     		push	{r3, lr}
 1493              		.cfi_def_cfa_offset 8
 1494              		.cfi_offset 3, -8
 1495              		.cfi_offset 14, -4
ARM GAS  C:\Users\Owner\AppData\Local\Temp\ccv0lMJk.s 			page 34


 1496              		.loc 7 74 1 is_stmt 0 view .LVU243
 1497 0006 FFF7FEFF 		bl	pow
 1498              	.LVL129:
 1499              		.loc 7 74 1 discriminator 1 view .LVU244
 1500 000a 9FED097B 		vldr.64	d7, .L108+8
 1501 000e 20EE070B 		vmul.f64	d0, d0, d7
 1502 0012 FFF7FEFF 		bl	exp
 1503              	.LVL130:
 1504              		.loc 7 74 1 is_stmt 1 discriminator 2 view .LVU245
 1505 0016 9FED086B 		vldr.64	d6, .L108+16
 1506 001a 9FED097B 		vldr.64	d7, .L108+24
 1507 001e 20EE060B 		vmul.f64	d0, d0, d6
 1508              	.LVL131:
 1509              		.loc 7 74 1 is_stmt 0 view .LVU246
 1510 0022 20EE070B 		vmul.f64	d0, d0, d7
 1511              	.LVL132:
 1512              		.loc 7 74 1 view .LVU247
 1513 0026 08BD     		pop	{r3, pc}
 1514              	.L109:
 1515              		.align	3
 1516              	.L108:
 1517 0028 4B327954 		.word	1417228875
 1518 002c 72D6ED3F 		.word	1072551538
 1519 0030 B5D87836 		.word	913889461
 1520 0034 89B8E6BF 		.word	-1075398519
 1521 0038 E51093F8 		.word	-124579611
 1522 003c 0C629640 		.word	1083597324
 1523 0040 77278DBA 		.word	-1165154441
 1524 0044 DEDF463F 		.word	1061609438
 1525              		.cfi_endproc
 1526              	.LFE3603:
 1528              		.section	.text._Z18enclosure_Fh1_funcd,"ax",%progbits
 1529              		.align	1
 1530              		.p2align 2,,3
 1531              		.global	_Z18enclosure_Fh1_funcd
 1532              		.syntax unified
 1533              		.thumb
 1534              		.thumb_func
 1536              	_Z18enclosure_Fh1_funcd:
 1537              	.LVL133:
 1538              	.LFB3604:
  75:enclosure_funcs.hpp **** CREATE_ENCLOSURE_FUNC(Fh1, 0.125000000000000, 1.341186266781990e+03, 1.251556368976049, 0.628719510
 1539              		.loc 7 75 1 is_stmt 1 view -0
 1540              		.cfi_startproc
 1541              		@ args = 0, pretend = 0, frame = 0
 1542              		@ frame_needed = 0, uses_anonymous_args = 0
 1543              		.loc 7 75 1 view .LVU249
 1544              		.loc 7 75 1 view .LVU250
 1545              		.loc 7 75 1 view .LVU251
 1546 0000 9FED091B 		vldr.64	d1, .L112
 1547 0004 08B5     		push	{r3, lr}
 1548              		.cfi_def_cfa_offset 8
 1549              		.cfi_offset 3, -8
 1550              		.cfi_offset 14, -4
 1551              		.loc 7 75 1 is_stmt 0 view .LVU252
 1552 0006 FFF7FEFF 		bl	pow
 1553              	.LVL134:
ARM GAS  C:\Users\Owner\AppData\Local\Temp\ccv0lMJk.s 			page 35


 1554              		.loc 7 75 1 discriminator 1 view .LVU253
 1555 000a 9FED097B 		vldr.64	d7, .L112+8
 1556 000e 20EE070B 		vmul.f64	d0, d0, d7
 1557 0012 FFF7FEFF 		bl	exp
 1558              	.LVL135:
 1559              		.loc 7 75 1 is_stmt 1 discriminator 2 view .LVU254
 1560 0016 9FED086B 		vldr.64	d6, .L112+16
 1561 001a 9FED097B 		vldr.64	d7, .L112+24
 1562 001e 20EE060B 		vmul.f64	d0, d0, d6
 1563              	.LVL136:
 1564              		.loc 7 75 1 is_stmt 0 view .LVU255
 1565 0022 20EE070B 		vmul.f64	d0, d0, d7
 1566              	.LVL137:
 1567              		.loc 7 75 1 view .LVU256
 1568 0026 08BD     		pop	{r3, pc}
 1569              	.L113:
 1570              		.align	3
 1571              	.L112:
 1572 0028 44C3E060 		.word	1625342788
 1573 002c 781EE43F 		.word	1071914616
 1574 0030 69A49DF8 		.word	-123886487
 1575 0034 5F06F4BF 		.word	-1074526625
 1576 0038 EA23B8BC 		.word	-1128782870
 1577 003c BEF49440 		.word	1083503806
 1578 0040 77278DBA 		.word	-1165154441
 1579 0044 DEDF463F 		.word	1061609438
 1580              		.cfi_endproc
 1581              	.LFE3604:
 1583              		.section	.text._Z18enclosure_Fh2_funcd,"ax",%progbits
 1584              		.align	1
 1585              		.p2align 2,,3
 1586              		.global	_Z18enclosure_Fh2_funcd
 1587              		.syntax unified
 1588              		.thumb
 1589              		.thumb_func
 1591              	_Z18enclosure_Fh2_funcd:
 1592              	.LVL138:
 1593              	.LFB3605:
  76:enclosure_funcs.hpp **** CREATE_ENCLOSURE_FUNC(Fh2, 0.125000000000000, 5.257249413428904e+02, 1.452685054852572, 0.677356430
 1594              		.loc 7 76 1 is_stmt 1 view -0
 1595              		.cfi_startproc
 1596              		@ args = 0, pretend = 0, frame = 0
 1597              		@ frame_needed = 0, uses_anonymous_args = 0
 1598              		.loc 7 76 1 view .LVU258
 1599              		.loc 7 76 1 view .LVU259
 1600              		.loc 7 76 1 view .LVU260
 1601 0000 9FED091B 		vldr.64	d1, .L116
 1602 0004 08B5     		push	{r3, lr}
 1603              		.cfi_def_cfa_offset 8
 1604              		.cfi_offset 3, -8
 1605              		.cfi_offset 14, -4
 1606              		.loc 7 76 1 is_stmt 0 view .LVU261
 1607 0006 FFF7FEFF 		bl	pow
 1608              	.LVL139:
 1609              		.loc 7 76 1 discriminator 1 view .LVU262
 1610 000a 9FED097B 		vldr.64	d7, .L116+8
 1611 000e 20EE070B 		vmul.f64	d0, d0, d7
ARM GAS  C:\Users\Owner\AppData\Local\Temp\ccv0lMJk.s 			page 36


 1612 0012 FFF7FEFF 		bl	exp
 1613              	.LVL140:
 1614              		.loc 7 76 1 is_stmt 1 discriminator 2 view .LVU263
 1615 0016 9FED086B 		vldr.64	d6, .L116+16
 1616 001a 9FED097B 		vldr.64	d7, .L116+24
 1617 001e 20EE060B 		vmul.f64	d0, d0, d6
 1618              	.LVL141:
 1619              		.loc 7 76 1 is_stmt 0 view .LVU264
 1620 0022 20EE070B 		vmul.f64	d0, d0, d7
 1621              	.LVL142:
 1622              		.loc 7 76 1 view .LVU265
 1623 0026 08BD     		pop	{r3, pc}
 1624              	.L117:
 1625              		.align	3
 1626              	.L116:
 1627 0028 CBB26A64 		.word	1684714187
 1628 002c E7ACE53F 		.word	1072016615
 1629 0030 1CAD1FAF 		.word	-1356878564
 1630 0034 323EF7BF 		.word	-1074315726
 1631 0038 DCF90BAE 		.word	-1374946852
 1632 003c CC6D8040 		.word	1082158540
 1633 0040 77278DBA 		.word	-1165154441
 1634 0044 DEDF463F 		.word	1061609438
 1635              		.cfi_endproc
 1636              	.LFE3605:
 1638              		.section	.text._Z18enclosure_Fh3_funcd,"ax",%progbits
 1639              		.align	1
 1640              		.p2align 2,,3
 1641              		.global	_Z18enclosure_Fh3_funcd
 1642              		.syntax unified
 1643              		.thumb
 1644              		.thumb_func
 1646              	_Z18enclosure_Fh3_funcd:
 1647              	.LVL143:
 1648              	.LFB3606:
  77:enclosure_funcs.hpp **** CREATE_ENCLOSURE_FUNC(Fh3, 0.125000000000000, 1.878598688084523e+02, 1.488859544062020, 0.565344127
 1649              		.loc 7 77 1 is_stmt 1 view -0
 1650              		.cfi_startproc
 1651              		@ args = 0, pretend = 0, frame = 0
 1652              		@ frame_needed = 0, uses_anonymous_args = 0
 1653              		.loc 7 77 1 view .LVU267
 1654              		.loc 7 77 1 view .LVU268
 1655              		.loc 7 77 1 view .LVU269
 1656 0000 9FED091B 		vldr.64	d1, .L120
 1657 0004 08B5     		push	{r3, lr}
 1658              		.cfi_def_cfa_offset 8
 1659              		.cfi_offset 3, -8
 1660              		.cfi_offset 14, -4
 1661              		.loc 7 77 1 is_stmt 0 view .LVU270
 1662 0006 FFF7FEFF 		bl	pow
 1663              	.LVL144:
 1664              		.loc 7 77 1 discriminator 1 view .LVU271
 1665 000a 9FED097B 		vldr.64	d7, .L120+8
 1666 000e 20EE070B 		vmul.f64	d0, d0, d7
 1667 0012 FFF7FEFF 		bl	exp
 1668              	.LVL145:
 1669              		.loc 7 77 1 is_stmt 1 discriminator 2 view .LVU272
ARM GAS  C:\Users\Owner\AppData\Local\Temp\ccv0lMJk.s 			page 37


 1670 0016 9FED086B 		vldr.64	d6, .L120+16
 1671 001a 9FED097B 		vldr.64	d7, .L120+24
 1672 001e 20EE060B 		vmul.f64	d0, d0, d6
 1673              	.LVL146:
 1674              		.loc 7 77 1 is_stmt 0 view .LVU273
 1675 0022 20EE070B 		vmul.f64	d0, d0, d7
 1676              	.LVL147:
 1677              		.loc 7 77 1 view .LVU274
 1678 0026 08BD     		pop	{r3, pc}
 1679              	.L121:
 1680              		.align	3
 1681              	.L120:
 1682 0028 7AB75A91 		.word	-1856325766
 1683 002c 4C17E23F 		.word	1071781708
 1684 0030 7057A162 		.word	1654740848
 1685 0034 5ED2F7BF 		.word	-1074277794
 1686 0038 E664970B 		.word	194471142
 1687 003c 847B6740 		.word	1080523652
 1688 0040 77278DBA 		.word	-1165154441
 1689 0044 DEDF463F 		.word	1061609438
 1690              		.cfi_endproc
 1691              	.LFE3606:
 1693              		.section	.text._Z18enclosure_Fh4_funcd,"ax",%progbits
 1694              		.align	1
 1695              		.p2align 2,,3
 1696              		.global	_Z18enclosure_Fh4_funcd
 1697              		.syntax unified
 1698              		.thumb
 1699              		.thumb_func
 1701              	_Z18enclosure_Fh4_funcd:
 1702              	.LVL148:
 1703              	.LFB3607:
  78:enclosure_funcs.hpp **** CREATE_ENCLOSURE_FUNC(Fh4, 0.125000000000000, 2.303145874584768e+02, 1.886566729036181, 0.726040119
 1704              		.loc 7 78 1 is_stmt 1 view -0
 1705              		.cfi_startproc
 1706              		@ args = 0, pretend = 0, frame = 0
 1707              		@ frame_needed = 0, uses_anonymous_args = 0
 1708              		.loc 7 78 1 view .LVU276
 1709              		.loc 7 78 1 view .LVU277
 1710              		.loc 7 78 1 view .LVU278
 1711 0000 9FED091B 		vldr.64	d1, .L124
 1712 0004 08B5     		push	{r3, lr}
 1713              		.cfi_def_cfa_offset 8
 1714              		.cfi_offset 3, -8
 1715              		.cfi_offset 14, -4
 1716              		.loc 7 78 1 is_stmt 0 view .LVU279
 1717 0006 FFF7FEFF 		bl	pow
 1718              	.LVL149:
 1719              		.loc 7 78 1 discriminator 1 view .LVU280
 1720 000a 9FED097B 		vldr.64	d7, .L124+8
 1721 000e 20EE070B 		vmul.f64	d0, d0, d7
 1722 0012 FFF7FEFF 		bl	exp
 1723              	.LVL150:
 1724              		.loc 7 78 1 is_stmt 1 discriminator 2 view .LVU281
 1725 0016 9FED086B 		vldr.64	d6, .L124+16
 1726 001a 9FED097B 		vldr.64	d7, .L124+24
 1727 001e 20EE060B 		vmul.f64	d0, d0, d6
ARM GAS  C:\Users\Owner\AppData\Local\Temp\ccv0lMJk.s 			page 38


 1728              	.LVL151:
 1729              		.loc 7 78 1 is_stmt 0 view .LVU282
 1730 0022 20EE070B 		vmul.f64	d0, d0, d7
 1731              	.LVL152:
 1732              		.loc 7 78 1 view .LVU283
 1733 0026 08BD     		pop	{r3, pc}
 1734              	.L125:
 1735              		.align	3
 1736              	.L124:
 1737 0028 0C3A137D 		.word	2098412044
 1738 002c B83BE73F 		.word	1072118712
 1739 0030 D8E92E98 		.word	-1741755944
 1740 0034 602FFEBF 		.word	-1073860768
 1741 0038 78BCB719 		.word	431471736
 1742 003c 11CA6C40 		.word	1080871441
 1743 0040 77278DBA 		.word	-1165154441
 1744 0044 DEDF463F 		.word	1061609438
 1745              		.cfi_endproc
 1746              	.LFE3607:
 1748              		.section	.text._Z23enclosure_F_Sharpf_funcd,"ax",%progbits
 1749              		.align	1
 1750              		.p2align 2,,3
 1751              		.global	_Z23enclosure_F_Sharpf_funcd
 1752              		.syntax unified
 1753              		.thumb
 1754              		.thumb_func
 1756              	_Z23enclosure_F_Sharpf_funcd:
 1757              	.LVL153:
 1758              	.LFB3608:
  79:enclosure_funcs.hpp **** 
  80:enclosure_funcs.hpp **** // F#
  81:enclosure_funcs.hpp **** CREATE_ENCLOSURE_FUNC(F_Sharpf, 0.375000000000000, 1.940334602208965e+03, 0.563148634908650, 0.9132
 1759              		.loc 7 81 1 is_stmt 1 view -0
 1760              		.cfi_startproc
 1761              		@ args = 0, pretend = 0, frame = 0
 1762              		@ frame_needed = 0, uses_anonymous_args = 0
 1763              		.loc 7 81 1 view .LVU285
 1764              		.loc 7 81 1 view .LVU286
 1765              		.loc 7 81 1 view .LVU287
 1766 0000 9FED091B 		vldr.64	d1, .L128
 1767 0004 08B5     		push	{r3, lr}
 1768              		.cfi_def_cfa_offset 8
 1769              		.cfi_offset 3, -8
 1770              		.cfi_offset 14, -4
 1771              		.loc 7 81 1 is_stmt 0 view .LVU288
 1772 0006 FFF7FEFF 		bl	pow
 1773              	.LVL154:
 1774              		.loc 7 81 1 discriminator 1 view .LVU289
 1775 000a 9FED097B 		vldr.64	d7, .L128+8
 1776 000e 20EE070B 		vmul.f64	d0, d0, d7
 1777 0012 FFF7FEFF 		bl	exp
 1778              	.LVL155:
 1779              		.loc 7 81 1 is_stmt 1 discriminator 2 view .LVU290
 1780 0016 9FED086B 		vldr.64	d6, .L128+16
 1781 001a 9FED097B 		vldr.64	d7, .L128+24
 1782 001e 20EE060B 		vmul.f64	d0, d0, d6
 1783              	.LVL156:
ARM GAS  C:\Users\Owner\AppData\Local\Temp\ccv0lMJk.s 			page 39


 1784              		.loc 7 81 1 is_stmt 0 view .LVU291
 1785 0022 20EE070B 		vmul.f64	d0, d0, d7
 1786              	.LVL157:
 1787              		.loc 7 81 1 view .LVU292
 1788 0026 08BD     		pop	{r3, pc}
 1789              	.L129:
 1790              		.align	3
 1791              	.L128:
 1792 0028 7C0D7226 		.word	645008764
 1793 002c 5839ED3F 		.word	1072511320
 1794 0030 BF073749 		.word	1228343231
 1795 0034 5005E2BF 		.word	-1075706544
 1796 0038 B222F6A1 		.word	-1577704782
 1797 003c 56519E40 		.word	1084117334
 1798 0040 B8ECFD71 		.word	1912466616
 1799 0044 47E3403F 		.word	1061217095
 1800              		.cfi_endproc
 1801              	.LFE3608:
 1803              		.section	.text._Z24enclosure_F_Sharph1_funcd,"ax",%progbits
 1804              		.align	1
 1805              		.p2align 2,,3
 1806              		.global	_Z24enclosure_F_Sharph1_funcd
 1807              		.syntax unified
 1808              		.thumb
 1809              		.thumb_func
 1811              	_Z24enclosure_F_Sharph1_funcd:
 1812              	.LVL158:
 1813              	.LFB3609:
  82:enclosure_funcs.hpp **** CREATE_ENCLOSURE_FUNC(F_Sharph1, 0.375000000000000, 1.724225694133396e+03, 1.200154100823339, 0.853
 1814              		.loc 7 82 1 is_stmt 1 view -0
 1815              		.cfi_startproc
 1816              		@ args = 0, pretend = 0, frame = 0
 1817              		@ frame_needed = 0, uses_anonymous_args = 0
 1818              		.loc 7 82 1 view .LVU294
 1819              		.loc 7 82 1 view .LVU295
 1820              		.loc 7 82 1 view .LVU296
 1821 0000 9FED091B 		vldr.64	d1, .L132
 1822 0004 08B5     		push	{r3, lr}
 1823              		.cfi_def_cfa_offset 8
 1824              		.cfi_offset 3, -8
 1825              		.cfi_offset 14, -4
 1826              		.loc 7 82 1 is_stmt 0 view .LVU297
 1827 0006 FFF7FEFF 		bl	pow
 1828              	.LVL159:
 1829              		.loc 7 82 1 discriminator 1 view .LVU298
 1830 000a 9FED097B 		vldr.64	d7, .L132+8
 1831 000e 20EE070B 		vmul.f64	d0, d0, d7
 1832 0012 FFF7FEFF 		bl	exp
 1833              	.LVL160:
 1834              		.loc 7 82 1 is_stmt 1 discriminator 2 view .LVU299
 1835 0016 9FED086B 		vldr.64	d6, .L132+16
 1836 001a 9FED097B 		vldr.64	d7, .L132+24
 1837 001e 20EE060B 		vmul.f64	d0, d0, d6
 1838              	.LVL161:
 1839              		.loc 7 82 1 is_stmt 0 view .LVU300
 1840 0022 20EE070B 		vmul.f64	d0, d0, d7
 1841              	.LVL162:
ARM GAS  C:\Users\Owner\AppData\Local\Temp\ccv0lMJk.s 			page 40


 1842              		.loc 7 82 1 view .LVU301
 1843 0026 08BD     		pop	{r3, pc}
 1844              	.L133:
 1845              		.align	3
 1846              	.L132:
 1847 0028 7B7E1D79 		.word	2031976059
 1848 002c E94CEB3F 		.word	1072385257
 1849 0030 FA2453C9 		.word	-917297926
 1850 0034 D433F3BF 		.word	-1074580524
 1851 0038 57E75C1C 		.word	475850583
 1852 003c E7F09A40 		.word	1083896039
 1853 0040 B8ECFD71 		.word	1912466616
 1854 0044 47E3403F 		.word	1061217095
 1855              		.cfi_endproc
 1856              	.LFE3609:
 1858              		.section	.text._Z24enclosure_F_Sharph2_funcd,"ax",%progbits
 1859              		.align	1
 1860              		.p2align 2,,3
 1861              		.global	_Z24enclosure_F_Sharph2_funcd
 1862              		.syntax unified
 1863              		.thumb
 1864              		.thumb_func
 1866              	_Z24enclosure_F_Sharph2_funcd:
 1867              	.LVL163:
 1868              	.LFB3610:
  83:enclosure_funcs.hpp **** CREATE_ENCLOSURE_FUNC(F_Sharph2, 0.125000000000000, 5.513015211232398e+02, 1.899783032954473, 0.545
 1869              		.loc 7 83 1 is_stmt 1 view -0
 1870              		.cfi_startproc
 1871              		@ args = 0, pretend = 0, frame = 0
 1872              		@ frame_needed = 0, uses_anonymous_args = 0
 1873              		.loc 7 83 1 view .LVU303
 1874              		.loc 7 83 1 view .LVU304
 1875              		.loc 7 83 1 view .LVU305
 1876 0000 9FED091B 		vldr.64	d1, .L136
 1877 0004 08B5     		push	{r3, lr}
 1878              		.cfi_def_cfa_offset 8
 1879              		.cfi_offset 3, -8
 1880              		.cfi_offset 14, -4
 1881              		.loc 7 83 1 is_stmt 0 view .LVU306
 1882 0006 FFF7FEFF 		bl	pow
 1883              	.LVL164:
 1884              		.loc 7 83 1 discriminator 1 view .LVU307
 1885 000a 9FED097B 		vldr.64	d7, .L136+8
 1886 000e 20EE070B 		vmul.f64	d0, d0, d7
 1887 0012 FFF7FEFF 		bl	exp
 1888              	.LVL165:
 1889              		.loc 7 83 1 is_stmt 1 discriminator 2 view .LVU308
 1890 0016 9FED086B 		vldr.64	d6, .L136+16
 1891 001a 9FED097B 		vldr.64	d7, .L136+24
 1892 001e 20EE060B 		vmul.f64	d0, d0, d6
 1893              	.LVL166:
 1894              		.loc 7 83 1 is_stmt 0 view .LVU309
 1895 0022 20EE070B 		vmul.f64	d0, d0, d7
 1896              	.LVL167:
 1897              		.loc 7 83 1 view .LVU310
 1898 0026 08BD     		pop	{r3, pc}
 1899              	.L137:
ARM GAS  C:\Users\Owner\AppData\Local\Temp\ccv0lMJk.s 			page 41


 1900              		.align	3
 1901              	.L136:
 1902 0028 A7D3BBA6 		.word	-1497640025
 1903 002c 5777E13F 		.word	1071740759
 1904 0030 FB8FC0E4 		.word	-457142277
 1905 0034 8265FEBF 		.word	-1073846910
 1906 0038 F21AE883 		.word	-2081940750
 1907 003c 693A8140 		.word	1082210921
 1908 0040 B8ECFD71 		.word	1912466616
 1909 0044 47E3403F 		.word	1061217095
 1910              		.cfi_endproc
 1911              	.LFE3610:
 1913              		.section	.text._Z24enclosure_F_Sharph3_funcd,"ax",%progbits
 1914              		.align	1
 1915              		.p2align 2,,3
 1916              		.global	_Z24enclosure_F_Sharph3_funcd
 1917              		.syntax unified
 1918              		.thumb
 1919              		.thumb_func
 1921              	_Z24enclosure_F_Sharph3_funcd:
 1922              	.LVL168:
 1923              	.LFB3611:
  84:enclosure_funcs.hpp **** CREATE_ENCLOSURE_FUNC(F_Sharph3, 0.125000000000000, 1.807386586780478e+02, 0.854967609270522, 1.132
 1924              		.loc 7 84 1 is_stmt 1 view -0
 1925              		.cfi_startproc
 1926              		@ args = 0, pretend = 0, frame = 0
 1927              		@ frame_needed = 0, uses_anonymous_args = 0
 1928              		.loc 7 84 1 view .LVU312
 1929              		.loc 7 84 1 view .LVU313
 1930              		.loc 7 84 1 view .LVU314
 1931 0000 9FED091B 		vldr.64	d1, .L140
 1932 0004 08B5     		push	{r3, lr}
 1933              		.cfi_def_cfa_offset 8
 1934              		.cfi_offset 3, -8
 1935              		.cfi_offset 14, -4
 1936              		.loc 7 84 1 is_stmt 0 view .LVU315
 1937 0006 FFF7FEFF 		bl	pow
 1938              	.LVL169:
 1939              		.loc 7 84 1 discriminator 1 view .LVU316
 1940 000a 9FED097B 		vldr.64	d7, .L140+8
 1941 000e 20EE070B 		vmul.f64	d0, d0, d7
 1942 0012 FFF7FEFF 		bl	exp
 1943              	.LVL170:
 1944              		.loc 7 84 1 is_stmt 1 discriminator 2 view .LVU317
 1945 0016 9FED086B 		vldr.64	d6, .L140+16
 1946 001a 9FED097B 		vldr.64	d7, .L140+24
 1947 001e 20EE060B 		vmul.f64	d0, d0, d6
 1948              	.LVL171:
 1949              		.loc 7 84 1 is_stmt 0 view .LVU318
 1950 0022 20EE070B 		vmul.f64	d0, d0, d7
 1951              	.LVL172:
 1952              		.loc 7 84 1 view .LVU319
 1953 0026 08BD     		pop	{r3, pc}
 1954              	.L141:
 1955              		.align	3
 1956              	.L140:
 1957 0028 3C903CC2 		.word	-1036218308
ARM GAS  C:\Users\Owner\AppData\Local\Temp\ccv0lMJk.s 			page 42


 1958 002c 771FF23F 		.word	1072832375
 1959 0030 2D991E08 		.word	136223021
 1960 0034 E55BEBBF 		.word	-1075094555
 1961 0038 E7238617 		.word	394666983
 1962 003c A3976640 		.word	1080465315
 1963 0040 B8ECFD71 		.word	1912466616
 1964 0044 47E3403F 		.word	1061217095
 1965              		.cfi_endproc
 1966              	.LFE3611:
 1968              		.section	.text._Z24enclosure_F_Sharph4_funcd,"ax",%progbits
 1969              		.align	1
 1970              		.p2align 2,,3
 1971              		.global	_Z24enclosure_F_Sharph4_funcd
 1972              		.syntax unified
 1973              		.thumb
 1974              		.thumb_func
 1976              	_Z24enclosure_F_Sharph4_funcd:
 1977              	.LVL173:
 1978              	.LFB3612:
  85:enclosure_funcs.hpp **** CREATE_ENCLOSURE_FUNC(F_Sharph4, 0.125000000000000, 2.744245618576450e+02, 1.664658362210416, 0.773
 1979              		.loc 7 85 1 is_stmt 1 view -0
 1980              		.cfi_startproc
 1981              		@ args = 0, pretend = 0, frame = 0
 1982              		@ frame_needed = 0, uses_anonymous_args = 0
 1983              		.loc 7 85 1 view .LVU321
 1984              		.loc 7 85 1 view .LVU322
 1985              		.loc 7 85 1 view .LVU323
 1986 0000 9FED091B 		vldr.64	d1, .L144
 1987 0004 08B5     		push	{r3, lr}
 1988              		.cfi_def_cfa_offset 8
 1989              		.cfi_offset 3, -8
 1990              		.cfi_offset 14, -4
 1991              		.loc 7 85 1 is_stmt 0 view .LVU324
 1992 0006 FFF7FEFF 		bl	pow
 1993              	.LVL174:
 1994              		.loc 7 85 1 discriminator 1 view .LVU325
 1995 000a 9FED097B 		vldr.64	d7, .L144+8
 1996 000e 20EE070B 		vmul.f64	d0, d0, d7
 1997 0012 FFF7FEFF 		bl	exp
 1998              	.LVL175:
 1999              		.loc 7 85 1 is_stmt 1 discriminator 2 view .LVU326
 2000 0016 9FED086B 		vldr.64	d6, .L144+16
 2001 001a 9FED097B 		vldr.64	d7, .L144+24
 2002 001e 20EE060B 		vmul.f64	d0, d0, d6
 2003              	.LVL176:
 2004              		.loc 7 85 1 is_stmt 0 view .LVU327
 2005 0022 20EE070B 		vmul.f64	d0, d0, d7
 2006              	.LVL177:
 2007              		.loc 7 85 1 view .LVU328
 2008 0026 08BD     		pop	{r3, pc}
 2009              	.L145:
 2010              		.align	3
 2011              	.L144:
 2012 0028 E3A4AF42 		.word	1118807267
 2013 002c 90C3E83F 		.word	1072219024
 2014 0030 7A4E8BCE 		.word	-829731206
 2015 0034 70A2FABF 		.word	-1074093456
ARM GAS  C:\Users\Owner\AppData\Local\Temp\ccv0lMJk.s 			page 43


 2016 0038 6EDB5F01 		.word	23059310
 2017 003c CB267140 		.word	1081157323
 2018 0040 B8ECFD71 		.word	1912466616
 2019 0044 47E3403F 		.word	1061217095
 2020              		.cfi_endproc
 2021              	.LFE3612:
 2023              		.section	.text._Z17enclosure_Gf_funcd,"ax",%progbits
 2024              		.align	1
 2025              		.p2align 2,,3
 2026              		.global	_Z17enclosure_Gf_funcd
 2027              		.syntax unified
 2028              		.thumb
 2029              		.thumb_func
 2031              	_Z17enclosure_Gf_funcd:
 2032              	.LVL178:
 2033              	.LFB3613:
  86:enclosure_funcs.hpp **** 
  87:enclosure_funcs.hpp **** // G
  88:enclosure_funcs.hpp **** CREATE_ENCLOSURE_FUNC(Gf, 0.500000000000000, 2.503280772426798e+03, 0.786827382317982, 1.0330365713
 2034              		.loc 7 88 1 is_stmt 1 view -0
 2035              		.cfi_startproc
 2036              		@ args = 0, pretend = 0, frame = 0
 2037              		@ frame_needed = 0, uses_anonymous_args = 0
 2038              		.loc 7 88 1 view .LVU330
 2039              		.loc 7 88 1 view .LVU331
 2040              		.loc 7 88 1 view .LVU332
 2041 0000 9FED091B 		vldr.64	d1, .L148
 2042 0004 08B5     		push	{r3, lr}
 2043              		.cfi_def_cfa_offset 8
 2044              		.cfi_offset 3, -8
 2045              		.cfi_offset 14, -4
 2046              		.loc 7 88 1 is_stmt 0 view .LVU333
 2047 0006 FFF7FEFF 		bl	pow
 2048              	.LVL179:
 2049              		.loc 7 88 1 discriminator 1 view .LVU334
 2050 000a 9FED097B 		vldr.64	d7, .L148+8
 2051 000e 20EE070B 		vmul.f64	d0, d0, d7
 2052 0012 FFF7FEFF 		bl	exp
 2053              	.LVL180:
 2054              		.loc 7 88 1 is_stmt 1 discriminator 2 view .LVU335
 2055 0016 9FED086B 		vldr.64	d6, .L148+16
 2056 001a 9FED097B 		vldr.64	d7, .L148+24
 2057 001e 20EE060B 		vmul.f64	d0, d0, d6
 2058              	.LVL181:
 2059              		.loc 7 88 1 is_stmt 0 view .LVU336
 2060 0022 20EE070B 		vmul.f64	d0, d0, d7
 2061              	.LVL182:
 2062              		.loc 7 88 1 view .LVU337
 2063 0026 08BD     		pop	{r3, pc}
 2064              	.L149:
 2065              		.align	3
 2066              	.L148:
 2067 0028 D934185B 		.word	1528313049
 2068 002c 5187F03F 		.word	1072727889
 2069 0030 8DE5549E 		.word	-1638603379
 2070 0034 B02DE9BF 		.word	-1075237456
 2071 0038 6F4D67C1 		.word	-1050194577
ARM GAS  C:\Users\Owner\AppData\Local\Temp\ccv0lMJk.s 			page 44


 2072 003c 8F8EA340 		.word	1084460687
 2073 0040 50C0F057 		.word	1475395664
 2074 0044 172E3A3F 		.word	1060777495
 2075              		.cfi_endproc
 2076              	.LFE3613:
 2078              		.section	.text._Z18enclosure_Gh1_funcd,"ax",%progbits
 2079              		.align	1
 2080              		.p2align 2,,3
 2081              		.global	_Z18enclosure_Gh1_funcd
 2082              		.syntax unified
 2083              		.thumb
 2084              		.thumb_func
 2086              	_Z18enclosure_Gh1_funcd:
 2087              	.LVL183:
 2088              	.LFB3614:
  89:enclosure_funcs.hpp **** CREATE_ENCLOSURE_FUNC(Gh1, 0.500000000000000, 1.099834186237688e+03, 1.029252547809515, 0.854788757
 2089              		.loc 7 89 1 is_stmt 1 view -0
 2090              		.cfi_startproc
 2091              		@ args = 0, pretend = 0, frame = 0
 2092              		@ frame_needed = 0, uses_anonymous_args = 0
 2093              		.loc 7 89 1 view .LVU339
 2094              		.loc 7 89 1 view .LVU340
 2095              		.loc 7 89 1 view .LVU341
 2096 0000 9FED091B 		vldr.64	d1, .L152
 2097 0004 08B5     		push	{r3, lr}
 2098              		.cfi_def_cfa_offset 8
 2099              		.cfi_offset 3, -8
 2100              		.cfi_offset 14, -4
 2101              		.loc 7 89 1 is_stmt 0 view .LVU342
 2102 0006 FFF7FEFF 		bl	pow
 2103              	.LVL184:
 2104              		.loc 7 89 1 discriminator 1 view .LVU343
 2105 000a 9FED097B 		vldr.64	d7, .L152+8
 2106 000e 20EE070B 		vmul.f64	d0, d0, d7
 2107 0012 FFF7FEFF 		bl	exp
 2108              	.LVL185:
 2109              		.loc 7 89 1 is_stmt 1 discriminator 2 view .LVU344
 2110 0016 9FED086B 		vldr.64	d6, .L152+16
 2111 001a 9FED097B 		vldr.64	d7, .L152+24
 2112 001e 20EE060B 		vmul.f64	d0, d0, d6
 2113              	.LVL186:
 2114              		.loc 7 89 1 is_stmt 0 view .LVU345
 2115 0022 20EE070B 		vmul.f64	d0, d0, d7
 2116              	.LVL187:
 2117              		.loc 7 89 1 view .LVU346
 2118 0026 08BD     		pop	{r3, pc}
 2119              	.L153:
 2120              		.align	3
 2121              	.L152:
 2122 0028 3BB0D9F3 		.word	-203837381
 2123 002c 6D5AEB3F 		.word	1072388717
 2124 0030 29AA0285 		.word	-2063422935
 2125 0034 D177F0BF 		.word	-1074759727
 2126 0038 93C6EA34 		.word	887801491
 2127 003c 562F9140 		.word	1083256662
 2128 0040 50C0F057 		.word	1475395664
 2129 0044 172E3A3F 		.word	1060777495
ARM GAS  C:\Users\Owner\AppData\Local\Temp\ccv0lMJk.s 			page 45


 2130              		.cfi_endproc
 2131              	.LFE3614:
 2133              		.section	.text._Z18enclosure_Gh2_funcd,"ax",%progbits
 2134              		.align	1
 2135              		.p2align 2,,3
 2136              		.global	_Z18enclosure_Gh2_funcd
 2137              		.syntax unified
 2138              		.thumb
 2139              		.thumb_func
 2141              	_Z18enclosure_Gh2_funcd:
 2142              	.LVL188:
 2143              	.LFB3615:
  90:enclosure_funcs.hpp **** CREATE_ENCLOSURE_FUNC(Gh2, 0.250000000000000, 1.541842753791847e+02, 1.192961453015776, 0.744381868
 2144              		.loc 7 90 1 is_stmt 1 view -0
 2145              		.cfi_startproc
 2146              		@ args = 0, pretend = 0, frame = 0
 2147              		@ frame_needed = 0, uses_anonymous_args = 0
 2148              		.loc 7 90 1 view .LVU348
 2149              		.loc 7 90 1 view .LVU349
 2150              		.loc 7 90 1 view .LVU350
 2151 0000 9FED091B 		vldr.64	d1, .L156
 2152 0004 08B5     		push	{r3, lr}
 2153              		.cfi_def_cfa_offset 8
 2154              		.cfi_offset 3, -8
 2155              		.cfi_offset 14, -4
 2156              		.loc 7 90 1 is_stmt 0 view .LVU351
 2157 0006 FFF7FEFF 		bl	pow
 2158              	.LVL189:
 2159              		.loc 7 90 1 discriminator 1 view .LVU352
 2160 000a 9FED097B 		vldr.64	d7, .L156+8
 2161 000e 20EE070B 		vmul.f64	d0, d0, d7
 2162 0012 FFF7FEFF 		bl	exp
 2163              	.LVL190:
 2164              		.loc 7 90 1 is_stmt 1 discriminator 2 view .LVU353
 2165 0016 9FED086B 		vldr.64	d6, .L156+16
 2166 001a 9FED097B 		vldr.64	d7, .L156+24
 2167 001e 20EE060B 		vmul.f64	d0, d0, d6
 2168              	.LVL191:
 2169              		.loc 7 90 1 is_stmt 0 view .LVU354
 2170 0022 20EE070B 		vmul.f64	d0, d0, d7
 2171              	.LVL192:
 2172              		.loc 7 90 1 view .LVU355
 2173 0026 08BD     		pop	{r3, pc}
 2174              	.L157:
 2175              		.align	3
 2176              	.L156:
 2177 0028 981F71EC 		.word	-328130664
 2178 002c F9D1E73F 		.word	1072157177
 2179 0030 5E76A1BF 		.word	-1079937442
 2180 0034 5E16F3BF 		.word	-1074588066
 2181 0038 CDE17A95 		.word	-1787108915
 2182 003c E5456340 		.word	1080247781
 2183 0040 50C0F057 		.word	1475395664
 2184 0044 172E3A3F 		.word	1060777495
 2185              		.cfi_endproc
 2186              	.LFE3615:
 2188              		.section	.text._Z18enclosure_Gh3_funcd,"ax",%progbits
ARM GAS  C:\Users\Owner\AppData\Local\Temp\ccv0lMJk.s 			page 46


 2189              		.align	1
 2190              		.p2align 2,,3
 2191              		.global	_Z18enclosure_Gh3_funcd
 2192              		.syntax unified
 2193              		.thumb
 2194              		.thumb_func
 2196              	_Z18enclosure_Gh3_funcd:
 2197              	.LVL193:
 2198              	.LFB3616:
  91:enclosure_funcs.hpp **** CREATE_ENCLOSURE_FUNC(Gh3, 0.375000000000000, 4.120904825150174e+02, 0.962943342824117, 0.876593533
 2199              		.loc 7 91 1 is_stmt 1 view -0
 2200              		.cfi_startproc
 2201              		@ args = 0, pretend = 0, frame = 0
 2202              		@ frame_needed = 0, uses_anonymous_args = 0
 2203              		.loc 7 91 1 view .LVU357
 2204              		.loc 7 91 1 view .LVU358
 2205              		.loc 7 91 1 view .LVU359
 2206 0000 9FED091B 		vldr.64	d1, .L160
 2207 0004 08B5     		push	{r3, lr}
 2208              		.cfi_def_cfa_offset 8
 2209              		.cfi_offset 3, -8
 2210              		.cfi_offset 14, -4
 2211              		.loc 7 91 1 is_stmt 0 view .LVU360
 2212 0006 FFF7FEFF 		bl	pow
 2213              	.LVL194:
 2214              		.loc 7 91 1 discriminator 1 view .LVU361
 2215 000a 9FED097B 		vldr.64	d7, .L160+8
 2216 000e 20EE070B 		vmul.f64	d0, d0, d7
 2217 0012 FFF7FEFF 		bl	exp
 2218              	.LVL195:
 2219              		.loc 7 91 1 is_stmt 1 discriminator 2 view .LVU362
 2220 0016 9FED086B 		vldr.64	d6, .L160+16
 2221 001a 9FED097B 		vldr.64	d7, .L160+24
 2222 001e 20EE060B 		vmul.f64	d0, d0, d6
 2223              	.LVL196:
 2224              		.loc 7 91 1 is_stmt 0 view .LVU363
 2225 0022 20EE070B 		vmul.f64	d0, d0, d7
 2226              	.LVL197:
 2227              		.loc 7 91 1 view .LVU364
 2228 0026 08BD     		pop	{r3, pc}
 2229              	.L161:
 2230              		.align	3
 2231              	.L160:
 2232 0028 B425FEE1 		.word	-503437900
 2233 002c 0D0DEC3F 		.word	1072434445
 2234 0030 7293AA8E 		.word	-1901423758
 2235 0034 6ED0EEBF 		.word	-1074868114
 2236 0038 C12DCB9D 		.word	-1647628863
 2237 003c 72C17940 		.word	1081721202
 2238 0040 50C0F057 		.word	1475395664
 2239 0044 172E3A3F 		.word	1060777495
 2240              		.cfi_endproc
 2241              	.LFE3616:
 2243              		.section	.text._Z18enclosure_Gh4_funcd,"ax",%progbits
 2244              		.align	1
 2245              		.p2align 2,,3
 2246              		.global	_Z18enclosure_Gh4_funcd
ARM GAS  C:\Users\Owner\AppData\Local\Temp\ccv0lMJk.s 			page 47


 2247              		.syntax unified
 2248              		.thumb
 2249              		.thumb_func
 2251              	_Z18enclosure_Gh4_funcd:
 2252              	.LVL198:
 2253              	.LFB3617:
  92:enclosure_funcs.hpp **** CREATE_ENCLOSURE_FUNC(Gh4, 0.250000000000000, 2.876178402016018e+02, 0.577914559844792, 1.135068457
 2254              		.loc 7 92 1 is_stmt 1 view -0
 2255              		.cfi_startproc
 2256              		@ args = 0, pretend = 0, frame = 0
 2257              		@ frame_needed = 0, uses_anonymous_args = 0
 2258              		.loc 7 92 1 view .LVU366
 2259              		.loc 7 92 1 view .LVU367
 2260              		.loc 7 92 1 view .LVU368
 2261 0000 9FED091B 		vldr.64	d1, .L164
 2262 0004 08B5     		push	{r3, lr}
 2263              		.cfi_def_cfa_offset 8
 2264              		.cfi_offset 3, -8
 2265              		.cfi_offset 14, -4
 2266              		.loc 7 92 1 is_stmt 0 view .LVU369
 2267 0006 FFF7FEFF 		bl	pow
 2268              	.LVL199:
 2269              		.loc 7 92 1 discriminator 1 view .LVU370
 2270 000a 9FED097B 		vldr.64	d7, .L164+8
 2271 000e 20EE070B 		vmul.f64	d0, d0, d7
 2272 0012 FFF7FEFF 		bl	exp
 2273              	.LVL200:
 2274              		.loc 7 92 1 is_stmt 1 discriminator 2 view .LVU371
 2275 0016 9FED086B 		vldr.64	d6, .L164+16
 2276 001a 9FED097B 		vldr.64	d7, .L164+24
 2277 001e 20EE060B 		vmul.f64	d0, d0, d6
 2278              	.LVL201:
 2279              		.loc 7 92 1 is_stmt 0 view .LVU372
 2280 0022 20EE070B 		vmul.f64	d0, d0, d7
 2281              	.LVL202:
 2282              		.loc 7 92 1 view .LVU373
 2283 0026 08BD     		pop	{r3, pc}
 2284              	.L165:
 2285              		.align	3
 2286              	.L164:
 2287 0028 8FDC138B 		.word	-1961632625
 2288 002c 3D29F23F 		.word	1072834877
 2289 0030 BB4CCDAC 		.word	-1395831621
 2290 0034 467EE2BF 		.word	-1075675578
 2291 0038 8A4068AC 		.word	-1402453878
 2292 003c E2F97140 		.word	1081211362
 2293 0040 50C0F057 		.word	1475395664
 2294 0044 172E3A3F 		.word	1060777495
 2295              		.cfi_endproc
 2296              	.LFE3617:
 2298              		.section	.text._Z23enclosure_G_Sharpf_funcd,"ax",%progbits
 2299              		.align	1
 2300              		.p2align 2,,3
 2301              		.global	_Z23enclosure_G_Sharpf_funcd
 2302              		.syntax unified
 2303              		.thumb
 2304              		.thumb_func
ARM GAS  C:\Users\Owner\AppData\Local\Temp\ccv0lMJk.s 			page 48


 2306              	_Z23enclosure_G_Sharpf_funcd:
 2307              	.LVL203:
 2308              	.LFB3618:
  93:enclosure_funcs.hpp **** 
  94:enclosure_funcs.hpp **** // G#
  95:enclosure_funcs.hpp **** CREATE_ENCLOSURE_FUNC(G_Sharpf, 0.250000000000000, 2.374508866804510e+03, 2.131271731347702, 0.3869
 2309              		.loc 7 95 1 is_stmt 1 view -0
 2310              		.cfi_startproc
 2311              		@ args = 0, pretend = 0, frame = 0
 2312              		@ frame_needed = 0, uses_anonymous_args = 0
 2313              		.loc 7 95 1 view .LVU375
 2314              		.loc 7 95 1 view .LVU376
 2315              		.loc 7 95 1 view .LVU377
 2316 0000 9FED091B 		vldr.64	d1, .L168
 2317 0004 08B5     		push	{r3, lr}
 2318              		.cfi_def_cfa_offset 8
 2319              		.cfi_offset 3, -8
 2320              		.cfi_offset 14, -4
 2321              		.loc 7 95 1 is_stmt 0 view .LVU378
 2322 0006 FFF7FEFF 		bl	pow
 2323              	.LVL204:
 2324              		.loc 7 95 1 discriminator 1 view .LVU379
 2325 000a 9FED097B 		vldr.64	d7, .L168+8
 2326 000e 20EE070B 		vmul.f64	d0, d0, d7
 2327 0012 FFF7FEFF 		bl	exp
 2328              	.LVL205:
 2329              		.loc 7 95 1 is_stmt 1 discriminator 2 view .LVU380
 2330 0016 9FED086B 		vldr.64	d6, .L168+16
 2331 001a 9FED097B 		vldr.64	d7, .L168+24
 2332 001e 20EE060B 		vmul.f64	d0, d0, d6
 2333              	.LVL206:
 2334              		.loc 7 95 1 is_stmt 0 view .LVU381
 2335 0022 20EE070B 		vmul.f64	d0, d0, d7
 2336              	.LVL207:
 2337              		.loc 7 95 1 view .LVU382
 2338 0026 08BD     		pop	{r3, pc}
 2339              	.L169:
 2340              		.align	3
 2341              	.L168:
 2342 0028 1DE8AC74 		.word	1957488669
 2343 002c 2CC3D83F 		.word	1071170348
 2344 0030 AF388831 		.word	831010991
 2345 0034 D80C01C0 		.word	-1073673000
 2346 0038 C896308A 		.word	-1976527160
 2347 003c 048DA240 		.word	1084394756
 2348 0040 C47C6153 		.word	1398897860
 2349 0044 8D993B3F 		.word	1060870541
 2350              		.cfi_endproc
 2351              	.LFE3618:
 2353              		.section	.text._Z24enclosure_G_Sharph1_funcd,"ax",%progbits
 2354              		.align	1
 2355              		.p2align 2,,3
 2356              		.global	_Z24enclosure_G_Sharph1_funcd
 2357              		.syntax unified
 2358              		.thumb
 2359              		.thumb_func
 2361              	_Z24enclosure_G_Sharph1_funcd:
ARM GAS  C:\Users\Owner\AppData\Local\Temp\ccv0lMJk.s 			page 49


 2362              	.LVL208:
 2363              	.LFB3619:
  96:enclosure_funcs.hpp **** CREATE_ENCLOSURE_FUNC(G_Sharph1, 0.375000000000000, 2.780773297163520e+02, 0.959320169529057, 0.734
 2364              		.loc 7 96 1 is_stmt 1 view -0
 2365              		.cfi_startproc
 2366              		@ args = 0, pretend = 0, frame = 0
 2367              		@ frame_needed = 0, uses_anonymous_args = 0
 2368              		.loc 7 96 1 view .LVU384
 2369              		.loc 7 96 1 view .LVU385
 2370              		.loc 7 96 1 view .LVU386
 2371 0000 9FED091B 		vldr.64	d1, .L172
 2372 0004 08B5     		push	{r3, lr}
 2373              		.cfi_def_cfa_offset 8
 2374              		.cfi_offset 3, -8
 2375              		.cfi_offset 14, -4
 2376              		.loc 7 96 1 is_stmt 0 view .LVU387
 2377 0006 FFF7FEFF 		bl	pow
 2378              	.LVL209:
 2379              		.loc 7 96 1 discriminator 1 view .LVU388
 2380 000a 9FED097B 		vldr.64	d7, .L172+8
 2381 000e 20EE070B 		vmul.f64	d0, d0, d7
 2382 0012 FFF7FEFF 		bl	exp
 2383              	.LVL210:
 2384              		.loc 7 96 1 is_stmt 1 discriminator 2 view .LVU389
 2385 0016 9FED086B 		vldr.64	d6, .L172+16
 2386 001a 9FED097B 		vldr.64	d7, .L172+24
 2387 001e 20EE060B 		vmul.f64	d0, d0, d6
 2388              	.LVL211:
 2389              		.loc 7 96 1 is_stmt 0 view .LVU390
 2390 0022 20EE070B 		vmul.f64	d0, d0, d7
 2391              	.LVL212:
 2392              		.loc 7 96 1 view .LVU391
 2393 0026 08BD     		pop	{r3, pc}
 2394              	.L173:
 2395              		.align	3
 2396              	.L172:
 2397 0028 928E0D03 		.word	51220114
 2398 002c 8A83E73F 		.word	1072137098
 2399 0030 BCA75036 		.word	911255484
 2400 0034 C0B2EEBF 		.word	-1074875712
 2401 0038 DAAB15BE 		.word	-1105876006
 2402 003c 3C617140 		.word	1081172284
 2403 0040 C47C6153 		.word	1398897860
 2404 0044 8D993B3F 		.word	1060870541
 2405              		.cfi_endproc
 2406              	.LFE3619:
 2408              		.section	.text._Z24enclosure_G_Sharph2_funcd,"ax",%progbits
 2409              		.align	1
 2410              		.p2align 2,,3
 2411              		.global	_Z24enclosure_G_Sharph2_funcd
 2412              		.syntax unified
 2413              		.thumb
 2414              		.thumb_func
 2416              	_Z24enclosure_G_Sharph2_funcd:
 2417              	.LVL213:
 2418              	.LFB3620:
  97:enclosure_funcs.hpp **** CREATE_ENCLOSURE_FUNC(G_Sharph2, 0.375000000000000, 6.248898302672043e+02, 1.806555998102045, 0.592
ARM GAS  C:\Users\Owner\AppData\Local\Temp\ccv0lMJk.s 			page 50


 2419              		.loc 7 97 1 is_stmt 1 view -0
 2420              		.cfi_startproc
 2421              		@ args = 0, pretend = 0, frame = 0
 2422              		@ frame_needed = 0, uses_anonymous_args = 0
 2423              		.loc 7 97 1 view .LVU393
 2424              		.loc 7 97 1 view .LVU394
 2425              		.loc 7 97 1 view .LVU395
 2426 0000 9FED091B 		vldr.64	d1, .L176
 2427 0004 08B5     		push	{r3, lr}
 2428              		.cfi_def_cfa_offset 8
 2429              		.cfi_offset 3, -8
 2430              		.cfi_offset 14, -4
 2431              		.loc 7 97 1 is_stmt 0 view .LVU396
 2432 0006 FFF7FEFF 		bl	pow
 2433              	.LVL214:
 2434              		.loc 7 97 1 discriminator 1 view .LVU397
 2435 000a 9FED097B 		vldr.64	d7, .L176+8
 2436 000e 20EE070B 		vmul.f64	d0, d0, d7
 2437 0012 FFF7FEFF 		bl	exp
 2438              	.LVL215:
 2439              		.loc 7 97 1 is_stmt 1 discriminator 2 view .LVU398
 2440 0016 9FED086B 		vldr.64	d6, .L176+16
 2441 001a 9FED097B 		vldr.64	d7, .L176+24
 2442 001e 20EE060B 		vmul.f64	d0, d0, d6
 2443              	.LVL216:
 2444              		.loc 7 97 1 is_stmt 0 view .LVU399
 2445 0022 20EE070B 		vmul.f64	d0, d0, d7
 2446              	.LVL217:
 2447              		.loc 7 97 1 view .LVU400
 2448 0026 08BD     		pop	{r3, pc}
 2449              	.L177:
 2450              		.align	3
 2451              	.L176:
 2452 0028 E62DABC2 		.word	-1028968986
 2453 002c 30F8E23F 		.word	1071839280
 2454 0030 D0DA2343 		.word	1126423248
 2455 0034 A7E7FCBF 		.word	-1073944665
 2456 0038 11C5545F 		.word	1599390993
 2457 003c 1E878340 		.word	1082361630
 2458 0040 C47C6153 		.word	1398897860
 2459 0044 8D993B3F 		.word	1060870541
 2460              		.cfi_endproc
 2461              	.LFE3620:
 2463              		.section	.text._Z24enclosure_G_Sharph3_funcd,"ax",%progbits
 2464              		.align	1
 2465              		.p2align 2,,3
 2466              		.global	_Z24enclosure_G_Sharph3_funcd
 2467              		.syntax unified
 2468              		.thumb
 2469              		.thumb_func
 2471              	_Z24enclosure_G_Sharph3_funcd:
 2472              	.LVL218:
 2473              	.LFB3621:
  98:enclosure_funcs.hpp **** CREATE_ENCLOSURE_FUNC(G_Sharph3, 0.125000000000000, 3.395562261635168e+02, 0.941144057148873, 0.749
 2474              		.loc 7 98 1 is_stmt 1 view -0
 2475              		.cfi_startproc
 2476              		@ args = 0, pretend = 0, frame = 0
ARM GAS  C:\Users\Owner\AppData\Local\Temp\ccv0lMJk.s 			page 51


 2477              		@ frame_needed = 0, uses_anonymous_args = 0
 2478              		.loc 7 98 1 view .LVU402
 2479              		.loc 7 98 1 view .LVU403
 2480              		.loc 7 98 1 view .LVU404
 2481 0000 9FED091B 		vldr.64	d1, .L180
 2482 0004 08B5     		push	{r3, lr}
 2483              		.cfi_def_cfa_offset 8
 2484              		.cfi_offset 3, -8
 2485              		.cfi_offset 14, -4
 2486              		.loc 7 98 1 is_stmt 0 view .LVU405
 2487 0006 FFF7FEFF 		bl	pow
 2488              	.LVL219:
 2489              		.loc 7 98 1 discriminator 1 view .LVU406
 2490 000a 9FED097B 		vldr.64	d7, .L180+8
 2491 000e 20EE070B 		vmul.f64	d0, d0, d7
 2492 0012 FFF7FEFF 		bl	exp
 2493              	.LVL220:
 2494              		.loc 7 98 1 is_stmt 1 discriminator 2 view .LVU407
 2495 0016 9FED086B 		vldr.64	d6, .L180+16
 2496 001a 9FED097B 		vldr.64	d7, .L180+24
 2497 001e 20EE060B 		vmul.f64	d0, d0, d6
 2498              	.LVL221:
 2499              		.loc 7 98 1 is_stmt 0 view .LVU408
 2500 0022 20EE070B 		vmul.f64	d0, d0, d7
 2501              	.LVL222:
 2502              		.loc 7 98 1 view .LVU409
 2503 0026 08BD     		pop	{r3, pc}
 2504              	.L181:
 2505              		.align	3
 2506              	.L180:
 2507 0028 CF74A9D5 		.word	-710314801
 2508 002c D1FBE73F 		.word	1072167889
 2509 0030 EAEE4824 		.word	608759530
 2510 0034 DA1DEEBF 		.word	-1074913830
 2511 0038 BFD7674D 		.word	1298651071
 2512 003c E6387540 		.word	1081424102
 2513 0040 C47C6153 		.word	1398897860
 2514 0044 8D993B3F 		.word	1060870541
 2515              		.cfi_endproc
 2516              	.LFE3621:
 2518              		.section	.text._Z24enclosure_G_Sharph4_funcd,"ax",%progbits
 2519              		.align	1
 2520              		.p2align 2,,3
 2521              		.global	_Z24enclosure_G_Sharph4_funcd
 2522              		.syntax unified
 2523              		.thumb
 2524              		.thumb_func
 2526              	_Z24enclosure_G_Sharph4_funcd:
 2527              	.LVL223:
 2528              	.LFB3622:
  99:enclosure_funcs.hpp **** CREATE_ENCLOSURE_FUNC(G_Sharph4, 0.250000000000000, 2.268570010225421e+02, 1.392920173187274, 0.824
 2529              		.loc 7 99 1 is_stmt 1 view -0
 2530              		.cfi_startproc
 2531              		@ args = 0, pretend = 0, frame = 0
 2532              		@ frame_needed = 0, uses_anonymous_args = 0
 2533              		.loc 7 99 1 view .LVU411
 2534              		.loc 7 99 1 view .LVU412
ARM GAS  C:\Users\Owner\AppData\Local\Temp\ccv0lMJk.s 			page 52


 2535              		.loc 7 99 1 view .LVU413
 2536 0000 9FED091B 		vldr.64	d1, .L184
 2537 0004 08B5     		push	{r3, lr}
 2538              		.cfi_def_cfa_offset 8
 2539              		.cfi_offset 3, -8
 2540              		.cfi_offset 14, -4
 2541              		.loc 7 99 1 is_stmt 0 view .LVU414
 2542 0006 FFF7FEFF 		bl	pow
 2543              	.LVL224:
 2544              		.loc 7 99 1 discriminator 1 view .LVU415
 2545 000a 9FED097B 		vldr.64	d7, .L184+8
 2546 000e 20EE070B 		vmul.f64	d0, d0, d7
 2547 0012 FFF7FEFF 		bl	exp
 2548              	.LVL225:
 2549              		.loc 7 99 1 is_stmt 1 discriminator 2 view .LVU416
 2550 0016 9FED086B 		vldr.64	d6, .L184+16
 2551 001a 9FED097B 		vldr.64	d7, .L184+24
 2552 001e 20EE060B 		vmul.f64	d0, d0, d6
 2553              	.LVL226:
 2554              		.loc 7 99 1 is_stmt 0 view .LVU417
 2555 0022 20EE070B 		vmul.f64	d0, d0, d7
 2556              	.LVL227:
 2557              		.loc 7 99 1 view .LVU418
 2558 0026 08BD     		pop	{r3, pc}
 2559              	.L185:
 2560              		.align	3
 2561              	.L184:
 2562 0028 CA89F568 		.word	1760922058
 2563 002c 0861EA3F 		.word	1072324872
 2564 0030 AE72DCA9 		.word	-1445170514
 2565 0034 6649F6BF 		.word	-1074378394
 2566 0038 9F8E688D 		.word	-1922527585
 2567 003c 6C5B6C40 		.word	1080843116
 2568 0040 C47C6153 		.word	1398897860
 2569 0044 8D993B3F 		.word	1060870541
 2570              		.cfi_endproc
 2571              	.LFE3622:
 2573              		.section	.text._Z17enclosure_Af_funcd,"ax",%progbits
 2574              		.align	1
 2575              		.p2align 2,,3
 2576              		.global	_Z17enclosure_Af_funcd
 2577              		.syntax unified
 2578              		.thumb
 2579              		.thumb_func
 2581              	_Z17enclosure_Af_funcd:
 2582              	.LVL228:
 2583              	.LFB3623:
 100:enclosure_funcs.hpp **** 
 101:enclosure_funcs.hpp **** // A
 102:enclosure_funcs.hpp **** CREATE_ENCLOSURE_FUNC(Af, 0.125000000000000, 2.159601256488268e+03, 1.188333151842889, 0.7106189309
 2584              		.loc 7 102 1 is_stmt 1 view -0
 2585              		.cfi_startproc
 2586              		@ args = 0, pretend = 0, frame = 0
 2587              		@ frame_needed = 0, uses_anonymous_args = 0
 2588              		.loc 7 102 1 view .LVU420
 2589              		.loc 7 102 1 view .LVU421
 2590              		.loc 7 102 1 view .LVU422
ARM GAS  C:\Users\Owner\AppData\Local\Temp\ccv0lMJk.s 			page 53


 2591 0000 9FED091B 		vldr.64	d1, .L188
 2592 0004 08B5     		push	{r3, lr}
 2593              		.cfi_def_cfa_offset 8
 2594              		.cfi_offset 3, -8
 2595              		.cfi_offset 14, -4
 2596              		.loc 7 102 1 is_stmt 0 view .LVU423
 2597 0006 FFF7FEFF 		bl	pow
 2598              	.LVL229:
 2599              		.loc 7 102 1 discriminator 1 view .LVU424
 2600 000a 9FED097B 		vldr.64	d7, .L188+8
 2601 000e 20EE070B 		vmul.f64	d0, d0, d7
 2602 0012 FFF7FEFF 		bl	exp
 2603              	.LVL230:
 2604              		.loc 7 102 1 is_stmt 1 discriminator 2 view .LVU425
 2605 0016 9FED086B 		vldr.64	d6, .L188+16
 2606 001a 9FED097B 		vldr.64	d7, .L188+24
 2607 001e 20EE060B 		vmul.f64	d0, d0, d6
 2608              	.LVL231:
 2609              		.loc 7 102 1 is_stmt 0 view .LVU426
 2610 0022 20EE070B 		vmul.f64	d0, d0, d7
 2611              	.LVL232:
 2612              		.loc 7 102 1 view .LVU427
 2613 0026 08BD     		pop	{r3, pc}
 2614              	.L189:
 2615              		.align	3
 2616              	.L188:
 2617 0028 9CE589E9 		.word	-376838756
 2618 002c 63BDE63F 		.word	1072086371
 2619 0030 5AAF7E9F 		.word	-1619087526
 2620 0034 6903F3BF 		.word	-1074592919
 2621 0038 3DF3E3D7 		.word	-672926915
 2622 003c 33DFA040 		.word	1084284723
 2623 0040 2341A6EB 		.word	-341425885
 2624 0044 A9583E3F 		.word	1061050537
 2625              		.cfi_endproc
 2626              	.LFE3623:
 2628              		.section	.text._Z18enclosure_Ah1_funcd,"ax",%progbits
 2629              		.align	1
 2630              		.p2align 2,,3
 2631              		.global	_Z18enclosure_Ah1_funcd
 2632              		.syntax unified
 2633              		.thumb
 2634              		.thumb_func
 2636              	_Z18enclosure_Ah1_funcd:
 2637              	.LVL233:
 2638              	.LFB3624:
 103:enclosure_funcs.hpp **** CREATE_ENCLOSURE_FUNC(Ah1, 0.625000000000000, 1.292577368148859e+03, 1.387601195829870, 0.741617839
 2639              		.loc 7 103 1 is_stmt 1 view -0
 2640              		.cfi_startproc
 2641              		@ args = 0, pretend = 0, frame = 0
 2642              		@ frame_needed = 0, uses_anonymous_args = 0
 2643              		.loc 7 103 1 view .LVU429
 2644              		.loc 7 103 1 view .LVU430
 2645              		.loc 7 103 1 view .LVU431
 2646 0000 9FED091B 		vldr.64	d1, .L192
 2647 0004 08B5     		push	{r3, lr}
 2648              		.cfi_def_cfa_offset 8
ARM GAS  C:\Users\Owner\AppData\Local\Temp\ccv0lMJk.s 			page 54


 2649              		.cfi_offset 3, -8
 2650              		.cfi_offset 14, -4
 2651              		.loc 7 103 1 is_stmt 0 view .LVU432
 2652 0006 FFF7FEFF 		bl	pow
 2653              	.LVL234:
 2654              		.loc 7 103 1 discriminator 1 view .LVU433
 2655 000a 9FED097B 		vldr.64	d7, .L192+8
 2656 000e 20EE070B 		vmul.f64	d0, d0, d7
 2657 0012 FFF7FEFF 		bl	exp
 2658              	.LVL235:
 2659              		.loc 7 103 1 is_stmt 1 discriminator 2 view .LVU434
 2660 0016 9FED086B 		vldr.64	d6, .L192+16
 2661 001a 9FED097B 		vldr.64	d7, .L192+24
 2662 001e 20EE060B 		vmul.f64	d0, d0, d6
 2663              	.LVL236:
 2664              		.loc 7 103 1 is_stmt 0 view .LVU435
 2665 0022 20EE070B 		vmul.f64	d0, d0, d7
 2666              	.LVL237:
 2667              		.loc 7 103 1 view .LVU436
 2668 0026 08BD     		pop	{r3, pc}
 2669              	.L193:
 2670              		.align	3
 2671              	.L192:
 2672 0028 1D081056 		.word	1443891229
 2673 002c 55BBE73F 		.word	1072151381
 2674 0030 31ADBF4F 		.word	1337961777
 2675 0034 9D33F6BF 		.word	-1074383971
 2676 0038 68949839 		.word	966300776
 2677 003c 4F329440 		.word	1083454031
 2678 0040 2341A6EB 		.word	-341425885
 2679 0044 A9583E3F 		.word	1061050537
 2680              		.cfi_endproc
 2681              	.LFE3624:
 2683              		.section	.text._Z18enclosure_Ah2_funcd,"ax",%progbits
 2684              		.align	1
 2685              		.p2align 2,,3
 2686              		.global	_Z18enclosure_Ah2_funcd
 2687              		.syntax unified
 2688              		.thumb
 2689              		.thumb_func
 2691              	_Z18enclosure_Ah2_funcd:
 2692              	.LVL238:
 2693              	.LFB3625:
 104:enclosure_funcs.hpp **** CREATE_ENCLOSURE_FUNC(Ah2, 0.375000000000000, 4.133249608840489e+02, 0.829570184636426, 0.949268814
 2694              		.loc 7 104 1 is_stmt 1 view -0
 2695              		.cfi_startproc
 2696              		@ args = 0, pretend = 0, frame = 0
 2697              		@ frame_needed = 0, uses_anonymous_args = 0
 2698              		.loc 7 104 1 view .LVU438
 2699              		.loc 7 104 1 view .LVU439
 2700              		.loc 7 104 1 view .LVU440
 2701 0000 9FED091B 		vldr.64	d1, .L196
 2702 0004 08B5     		push	{r3, lr}
 2703              		.cfi_def_cfa_offset 8
 2704              		.cfi_offset 3, -8
 2705              		.cfi_offset 14, -4
 2706              		.loc 7 104 1 is_stmt 0 view .LVU441
ARM GAS  C:\Users\Owner\AppData\Local\Temp\ccv0lMJk.s 			page 55


 2707 0006 FFF7FEFF 		bl	pow
 2708              	.LVL239:
 2709              		.loc 7 104 1 discriminator 1 view .LVU442
 2710 000a 9FED097B 		vldr.64	d7, .L196+8
 2711 000e 20EE070B 		vmul.f64	d0, d0, d7
 2712 0012 FFF7FEFF 		bl	exp
 2713              	.LVL240:
 2714              		.loc 7 104 1 is_stmt 1 discriminator 2 view .LVU443
 2715 0016 9FED086B 		vldr.64	d6, .L196+16
 2716 001a 9FED097B 		vldr.64	d7, .L196+24
 2717 001e 20EE060B 		vmul.f64	d0, d0, d6
 2718              	.LVL241:
 2719              		.loc 7 104 1 is_stmt 0 view .LVU444
 2720 0022 20EE070B 		vmul.f64	d0, d0, d7
 2721              	.LVL242:
 2722              		.loc 7 104 1 view .LVU445
 2723 0026 08BD     		pop	{r3, pc}
 2724              	.L197:
 2725              		.align	3
 2726              	.L196:
 2727 0028 09D758FE 		.word	-27732215
 2728 002c 6860EE3F 		.word	1072586856
 2729 0030 130198C5 		.word	-979893997
 2730 0034 D68BEABF 		.word	-1075147818
 2731 0038 82172F0A 		.word	170858370
 2732 003c 33D57940 		.word	1081726259
 2733 0040 2341A6EB 		.word	-341425885
 2734 0044 A9583E3F 		.word	1061050537
 2735              		.cfi_endproc
 2736              	.LFE3625:
 2738              		.section	.text._Z18enclosure_Ah3_funcd,"ax",%progbits
 2739              		.align	1
 2740              		.p2align 2,,3
 2741              		.global	_Z18enclosure_Ah3_funcd
 2742              		.syntax unified
 2743              		.thumb
 2744              		.thumb_func
 2746              	_Z18enclosure_Ah3_funcd:
 2747              	.LVL243:
 2748              	.LFB3626:
 105:enclosure_funcs.hpp **** CREATE_ENCLOSURE_FUNC(Ah3, 0.125000000000000, 97.580640359204423, 1.119820247912341, 0.740153306415
 2749              		.loc 7 105 1 is_stmt 1 view -0
 2750              		.cfi_startproc
 2751              		@ args = 0, pretend = 0, frame = 0
 2752              		@ frame_needed = 0, uses_anonymous_args = 0
 2753              		.loc 7 105 1 view .LVU447
 2754              		.loc 7 105 1 view .LVU448
 2755              		.loc 7 105 1 view .LVU449
 2756 0000 9FED091B 		vldr.64	d1, .L200
 2757 0004 08B5     		push	{r3, lr}
 2758              		.cfi_def_cfa_offset 8
 2759              		.cfi_offset 3, -8
 2760              		.cfi_offset 14, -4
 2761              		.loc 7 105 1 is_stmt 0 view .LVU450
 2762 0006 FFF7FEFF 		bl	pow
 2763              	.LVL244:
 2764              		.loc 7 105 1 discriminator 1 view .LVU451
ARM GAS  C:\Users\Owner\AppData\Local\Temp\ccv0lMJk.s 			page 56


 2765 000a 9FED097B 		vldr.64	d7, .L200+8
 2766 000e 20EE070B 		vmul.f64	d0, d0, d7
 2767 0012 FFF7FEFF 		bl	exp
 2768              	.LVL245:
 2769              		.loc 7 105 1 is_stmt 1 discriminator 2 view .LVU452
 2770 0016 9FED086B 		vldr.64	d6, .L200+16
 2771 001a 9FED097B 		vldr.64	d7, .L200+24
 2772 001e 20EE060B 		vmul.f64	d0, d0, d6
 2773              	.LVL246:
 2774              		.loc 7 105 1 is_stmt 0 view .LVU453
 2775 0022 20EE070B 		vmul.f64	d0, d0, d7
 2776              	.LVL247:
 2777              		.loc 7 105 1 view .LVU454
 2778 0026 08BD     		pop	{r3, pc}
 2779              	.L201:
 2780              		.align	3
 2781              	.L200:
 2782 0028 9187A2FC 		.word	-56457327
 2783 002c 55AFE73F 		.word	1072148309
 2784 0030 F3E9E2A2 		.word	-1562187277
 2785 0034 C8EAF1BF 		.word	-1074664760
 2786 0038 53612E36 		.word	909009235
 2787 003c 29655840 		.word	1079534889
 2788 0040 2341A6EB 		.word	-341425885
 2789 0044 A9583E3F 		.word	1061050537
 2790              		.cfi_endproc
 2791              	.LFE3626:
 2793              		.section	.text._Z18enclosure_Ah4_funcd,"ax",%progbits
 2794              		.align	1
 2795              		.p2align 2,,3
 2796              		.global	_Z18enclosure_Ah4_funcd
 2797              		.syntax unified
 2798              		.thumb
 2799              		.thumb_func
 2801              	_Z18enclosure_Ah4_funcd:
 2802              	.LVL248:
 2803              	.LFB3627:
 106:enclosure_funcs.hpp **** CREATE_ENCLOSURE_FUNC(Ah4, 0.125000000000000, 1.008615078995461e+02, 1.820381474809620, 0.632550133
 2804              		.loc 7 106 1 is_stmt 1 view -0
 2805              		.cfi_startproc
 2806              		@ args = 0, pretend = 0, frame = 0
 2807              		@ frame_needed = 0, uses_anonymous_args = 0
 2808              		.loc 7 106 1 view .LVU456
 2809              		.loc 7 106 1 view .LVU457
 2810              		.loc 7 106 1 view .LVU458
 2811 0000 9FED091B 		vldr.64	d1, .L204
 2812 0004 08B5     		push	{r3, lr}
 2813              		.cfi_def_cfa_offset 8
 2814              		.cfi_offset 3, -8
 2815              		.cfi_offset 14, -4
 2816              		.loc 7 106 1 is_stmt 0 view .LVU459
 2817 0006 FFF7FEFF 		bl	pow
 2818              	.LVL249:
 2819              		.loc 7 106 1 discriminator 1 view .LVU460
 2820 000a 9FED097B 		vldr.64	d7, .L204+8
 2821 000e 20EE070B 		vmul.f64	d0, d0, d7
 2822 0012 FFF7FEFF 		bl	exp
ARM GAS  C:\Users\Owner\AppData\Local\Temp\ccv0lMJk.s 			page 57


 2823              	.LVL250:
 2824              		.loc 7 106 1 is_stmt 1 discriminator 2 view .LVU461
 2825 0016 9FED086B 		vldr.64	d6, .L204+16
 2826 001a 9FED097B 		vldr.64	d7, .L204+24
 2827 001e 20EE060B 		vmul.f64	d0, d0, d6
 2828              	.LVL251:
 2829              		.loc 7 106 1 is_stmt 0 view .LVU462
 2830 0022 20EE070B 		vmul.f64	d0, d0, d7
 2831              	.LVL252:
 2832              		.loc 7 106 1 view .LVU463
 2833 0026 08BD     		pop	{r3, pc}
 2834              	.L205:
 2835              		.align	3
 2836              	.L204:
 2837 0028 9C2CDFC6 		.word	-958452580
 2838 002c D93DE43F 		.word	1071922649
 2839 0030 37D34853 		.word	1397281591
 2840 0034 4820FDBF 		.word	-1073930168
 2841 0038 F47207F2 		.word	-234392844
 2842 003c 22375940 		.word	1079588642
 2843 0040 2341A6EB 		.word	-341425885
 2844 0044 A9583E3F 		.word	1061050537
 2845              		.cfi_endproc
 2846              	.LFE3627:
 2848              		.section	.text._Z23enclosure_A_Sharpf_funcd,"ax",%progbits
 2849              		.align	1
 2850              		.p2align 2,,3
 2851              		.global	_Z23enclosure_A_Sharpf_funcd
 2852              		.syntax unified
 2853              		.thumb
 2854              		.thumb_func
 2856              	_Z23enclosure_A_Sharpf_funcd:
 2857              	.LVL253:
 2858              	.LFB3628:
 107:enclosure_funcs.hpp **** 
 108:enclosure_funcs.hpp **** // A#
 109:enclosure_funcs.hpp **** CREATE_ENCLOSURE_FUNC(A_Sharpf, 0.250000000000000,	2.616061761821466e+03,	1.329776430765951,	0.6608
 2859              		.loc 7 109 1 is_stmt 1 view -0
 2860              		.cfi_startproc
 2861              		@ args = 0, pretend = 0, frame = 0
 2862              		@ frame_needed = 0, uses_anonymous_args = 0
 2863              		.loc 7 109 1 view .LVU465
 2864              		.loc 7 109 1 view .LVU466
 2865              		.loc 7 109 1 view .LVU467
 2866 0000 9FED091B 		vldr.64	d1, .L208
 2867 0004 08B5     		push	{r3, lr}
 2868              		.cfi_def_cfa_offset 8
 2869              		.cfi_offset 3, -8
 2870              		.cfi_offset 14, -4
 2871              		.loc 7 109 1 is_stmt 0 view .LVU468
 2872 0006 FFF7FEFF 		bl	pow
 2873              	.LVL254:
 2874              		.loc 7 109 1 discriminator 1 view .LVU469
 2875 000a 9FED097B 		vldr.64	d7, .L208+8
 2876 000e 20EE070B 		vmul.f64	d0, d0, d7
 2877 0012 FFF7FEFF 		bl	exp
 2878              	.LVL255:
ARM GAS  C:\Users\Owner\AppData\Local\Temp\ccv0lMJk.s 			page 58


 2879              		.loc 7 109 1 is_stmt 1 discriminator 2 view .LVU470
 2880 0016 9FED086B 		vldr.64	d6, .L208+16
 2881 001a 9FED097B 		vldr.64	d7, .L208+24
 2882 001e 20EE060B 		vmul.f64	d0, d0, d6
 2883              	.LVL256:
 2884              		.loc 7 109 1 is_stmt 0 view .LVU471
 2885 0022 20EE070B 		vmul.f64	d0, d0, d7
 2886              	.LVL257:
 2887              		.loc 7 109 1 view .LVU472
 2888 0026 08BD     		pop	{r3, pc}
 2889              	.L209:
 2890              		.align	3
 2891              	.L208:
 2892 0028 8D5F2DD7 		.word	-684892275
 2893 002c 5425E53F 		.word	1071981908
 2894 0030 151A92A6 		.word	-1500374507
 2895 0034 C346F5BF 		.word	-1074444605
 2896 0038 ADD63E9F 		.word	-1623271763
 2897 003c 1F70A440 		.word	1084518431
 2898 0040 6A0C354F 		.word	1328876650
 2899 0044 280D393F 		.word	1060703528
 2900              		.cfi_endproc
 2901              	.LFE3628:
 2903              		.section	.text._Z24enclosure_A_Sharph1_funcd,"ax",%progbits
 2904              		.align	1
 2905              		.p2align 2,,3
 2906              		.global	_Z24enclosure_A_Sharph1_funcd
 2907              		.syntax unified
 2908              		.thumb
 2909              		.thumb_func
 2911              	_Z24enclosure_A_Sharph1_funcd:
 2912              	.LVL258:
 2913              	.LFB3629:
 110:enclosure_funcs.hpp **** CREATE_ENCLOSURE_FUNC(A_Sharph1, 0.375000000000000,	3.729399423090688e+02,	1.017678461627570,	0.693
 2914              		.loc 7 110 1 is_stmt 1 view -0
 2915              		.cfi_startproc
 2916              		@ args = 0, pretend = 0, frame = 0
 2917              		@ frame_needed = 0, uses_anonymous_args = 0
 2918              		.loc 7 110 1 view .LVU474
 2919              		.loc 7 110 1 view .LVU475
 2920              		.loc 7 110 1 view .LVU476
 2921 0000 9FED091B 		vldr.64	d1, .L212
 2922 0004 08B5     		push	{r3, lr}
 2923              		.cfi_def_cfa_offset 8
 2924              		.cfi_offset 3, -8
 2925              		.cfi_offset 14, -4
 2926              		.loc 7 110 1 is_stmt 0 view .LVU477
 2927 0006 FFF7FEFF 		bl	pow
 2928              	.LVL259:
 2929              		.loc 7 110 1 discriminator 1 view .LVU478
 2930 000a 9FED097B 		vldr.64	d7, .L212+8
 2931 000e 20EE070B 		vmul.f64	d0, d0, d7
 2932 0012 FFF7FEFF 		bl	exp
 2933              	.LVL260:
 2934              		.loc 7 110 1 is_stmt 1 discriminator 2 view .LVU479
 2935 0016 9FED086B 		vldr.64	d6, .L212+16
 2936 001a 9FED097B 		vldr.64	d7, .L212+24
ARM GAS  C:\Users\Owner\AppData\Local\Temp\ccv0lMJk.s 			page 59


 2937 001e 20EE060B 		vmul.f64	d0, d0, d6
 2938              	.LVL261:
 2939              		.loc 7 110 1 is_stmt 0 view .LVU480
 2940 0022 20EE070B 		vmul.f64	d0, d0, d7
 2941              	.LVL262:
 2942              		.loc 7 110 1 view .LVU481
 2943 0026 08BD     		pop	{r3, pc}
 2944              	.L213:
 2945              		.align	3
 2946              	.L212:
 2947 0028 BD6B6782 		.word	-2107151427
 2948 002c 1835E63F 		.word	1072051480
 2949 0030 488BE835 		.word	904432456
 2950 0034 6948F0BF 		.word	-1074771863
 2951 0038 3C59F200 		.word	15882556
 2952 003c 0A4F7740 		.word	1081560842
 2953 0040 6A0C354F 		.word	1328876650
 2954 0044 280D393F 		.word	1060703528
 2955              		.cfi_endproc
 2956              	.LFE3629:
 2958              		.section	.text._Z24enclosure_A_Sharph2_funcd,"ax",%progbits
 2959              		.align	1
 2960              		.p2align 2,,3
 2961              		.global	_Z24enclosure_A_Sharph2_funcd
 2962              		.syntax unified
 2963              		.thumb
 2964              		.thumb_func
 2966              	_Z24enclosure_A_Sharph2_funcd:
 2967              	.LVL263:
 2968              	.LFB3630:
 111:enclosure_funcs.hpp **** CREATE_ENCLOSURE_FUNC(A_Sharph2, 0.250000000000000,	1.630850682048525e+02,	1.696881615617859,	0.450
 2969              		.loc 7 111 1 is_stmt 1 view -0
 2970              		.cfi_startproc
 2971              		@ args = 0, pretend = 0, frame = 0
 2972              		@ frame_needed = 0, uses_anonymous_args = 0
 2973              		.loc 7 111 1 view .LVU483
 2974              		.loc 7 111 1 view .LVU484
 2975              		.loc 7 111 1 view .LVU485
 2976 0000 9FED091B 		vldr.64	d1, .L216
 2977 0004 08B5     		push	{r3, lr}
 2978              		.cfi_def_cfa_offset 8
 2979              		.cfi_offset 3, -8
 2980              		.cfi_offset 14, -4
 2981              		.loc 7 111 1 is_stmt 0 view .LVU486
 2982 0006 FFF7FEFF 		bl	pow
 2983              	.LVL264:
 2984              		.loc 7 111 1 discriminator 1 view .LVU487
 2985 000a 9FED097B 		vldr.64	d7, .L216+8
 2986 000e 20EE070B 		vmul.f64	d0, d0, d7
 2987 0012 FFF7FEFF 		bl	exp
 2988              	.LVL265:
 2989              		.loc 7 111 1 is_stmt 1 discriminator 2 view .LVU488
 2990 0016 9FED086B 		vldr.64	d6, .L216+16
 2991 001a 9FED097B 		vldr.64	d7, .L216+24
 2992 001e 20EE060B 		vmul.f64	d0, d0, d6
 2993              	.LVL266:
 2994              		.loc 7 111 1 is_stmt 0 view .LVU489
ARM GAS  C:\Users\Owner\AppData\Local\Temp\ccv0lMJk.s 			page 60


 2995 0022 20EE070B 		vmul.f64	d0, d0, d7
 2996              	.LVL267:
 2997              		.loc 7 111 1 view .LVU490
 2998 0026 08BD     		pop	{r3, pc}
 2999              	.L217:
 3000              		.align	3
 3001              	.L216:
 3002 0028 B6D8102C 		.word	739301558
 3003 002c FAD9DC3F 		.word	1071438330
 3004 0030 93324456 		.word	1447309971
 3005 0034 6D26FBBF 		.word	-1074059667
 3006 0038 ABB8F4E0 		.word	-520832853
 3007 003c B8626440 		.word	1080320696
 3008 0040 6A0C354F 		.word	1328876650
 3009 0044 280D393F 		.word	1060703528
 3010              		.cfi_endproc
 3011              	.LFE3630:
 3013              		.section	.text._Z24enclosure_A_Sharph3_funcd,"ax",%progbits
 3014              		.align	1
 3015              		.p2align 2,,3
 3016              		.global	_Z24enclosure_A_Sharph3_funcd
 3017              		.syntax unified
 3018              		.thumb
 3019              		.thumb_func
 3021              	_Z24enclosure_A_Sharph3_funcd:
 3022              	.LVL268:
 3023              	.LFB3631:
 112:enclosure_funcs.hpp **** CREATE_ENCLOSURE_FUNC(A_Sharph3, 0.375000000000000,	1.949489784228466e+02,	0.951550320672685,	0.787
 3024              		.loc 7 112 1 is_stmt 1 view -0
 3025              		.cfi_startproc
 3026              		@ args = 0, pretend = 0, frame = 0
 3027              		@ frame_needed = 0, uses_anonymous_args = 0
 3028              		.loc 7 112 1 view .LVU492
 3029              		.loc 7 112 1 view .LVU493
 3030              		.loc 7 112 1 view .LVU494
 3031 0000 9FED091B 		vldr.64	d1, .L220
 3032 0004 08B5     		push	{r3, lr}
 3033              		.cfi_def_cfa_offset 8
 3034              		.cfi_offset 3, -8
 3035              		.cfi_offset 14, -4
 3036              		.loc 7 112 1 is_stmt 0 view .LVU495
 3037 0006 FFF7FEFF 		bl	pow
 3038              	.LVL269:
 3039              		.loc 7 112 1 discriminator 1 view .LVU496
 3040 000a 9FED097B 		vldr.64	d7, .L220+8
 3041 000e 20EE070B 		vmul.f64	d0, d0, d7
 3042 0012 FFF7FEFF 		bl	exp
 3043              	.LVL270:
 3044              		.loc 7 112 1 is_stmt 1 discriminator 2 view .LVU497
 3045 0016 9FED086B 		vldr.64	d6, .L220+16
 3046 001a 9FED097B 		vldr.64	d7, .L220+24
 3047 001e 20EE060B 		vmul.f64	d0, d0, d6
 3048              	.LVL271:
 3049              		.loc 7 112 1 is_stmt 0 view .LVU498
 3050 0022 20EE070B 		vmul.f64	d0, d0, d7
 3051              	.LVL272:
 3052              		.loc 7 112 1 view .LVU499
ARM GAS  C:\Users\Owner\AppData\Local\Temp\ccv0lMJk.s 			page 61


 3053 0026 08BD     		pop	{r3, pc}
 3054              	.L221:
 3055              		.align	3
 3056              	.L220:
 3057 0028 77B1984C 		.word	1285075319
 3058 002c 5530E93F 		.word	1072246869
 3059 0030 283379A8 		.word	-1468452056
 3060 0034 1973EEBF 		.word	-1074892007
 3061 0038 8C57FF07 		.word	134174604
 3062 003c 5E5E6840 		.word	1080581726
 3063 0040 6A0C354F 		.word	1328876650
 3064 0044 280D393F 		.word	1060703528
 3065              		.cfi_endproc
 3066              	.LFE3631:
 3068              		.section	.text._Z24enclosure_A_Sharph4_funcd,"ax",%progbits
 3069              		.align	1
 3070              		.p2align 2,,3
 3071              		.global	_Z24enclosure_A_Sharph4_funcd
 3072              		.syntax unified
 3073              		.thumb
 3074              		.thumb_func
 3076              	_Z24enclosure_A_Sharph4_funcd:
 3077              	.LVL273:
 3078              	.LFB3632:
 113:enclosure_funcs.hpp **** CREATE_ENCLOSURE_FUNC(A_Sharph4, 0.125000000000000,	2.114690441511058e+02,	1.521849172113736,	0.640
 3079              		.loc 7 113 1 is_stmt 1 view -0
 3080              		.cfi_startproc
 3081              		@ args = 0, pretend = 0, frame = 0
 3082              		@ frame_needed = 0, uses_anonymous_args = 0
 3083              		.loc 7 113 1 view .LVU501
 3084              		.loc 7 113 1 view .LVU502
 3085              		.loc 7 113 1 view .LVU503
 3086 0000 9FED091B 		vldr.64	d1, .L224
 3087 0004 08B5     		push	{r3, lr}
 3088              		.cfi_def_cfa_offset 8
 3089              		.cfi_offset 3, -8
 3090              		.cfi_offset 14, -4
 3091              		.loc 7 113 1 is_stmt 0 view .LVU504
 3092 0006 FFF7FEFF 		bl	pow
 3093              	.LVL274:
 3094              		.loc 7 113 1 discriminator 1 view .LVU505
 3095 000a 9FED097B 		vldr.64	d7, .L224+8
 3096 000e 20EE070B 		vmul.f64	d0, d0, d7
 3097 0012 FFF7FEFF 		bl	exp
 3098              	.LVL275:
 3099              		.loc 7 113 1 is_stmt 1 discriminator 2 view .LVU506
 3100 0016 9FED086B 		vldr.64	d6, .L224+16
 3101 001a 9FED097B 		vldr.64	d7, .L224+24
 3102 001e 20EE060B 		vmul.f64	d0, d0, d6
 3103              	.LVL276:
 3104              		.loc 7 113 1 is_stmt 0 view .LVU507
 3105 0022 20EE070B 		vmul.f64	d0, d0, d7
 3106              	.LVL277:
 3107              		.loc 7 113 1 view .LVU508
 3108 0026 08BD     		pop	{r3, pc}
 3109              	.L225:
 3110              		.align	3
ARM GAS  C:\Users\Owner\AppData\Local\Temp\ccv0lMJk.s 			page 62


 3111              	.L224:
 3112 0028 2086F94A 		.word	1257866784
 3113 002c E07EE43F 		.word	1071939296
 3114 0030 4FC57A84 		.word	-2072328881
 3115 0034 7E59F8BF 		.word	-1074243202
 3116 0038 252CE168 		.word	1759587365
 3117 003c 026F6A40 		.word	1080717058
 3118 0040 6A0C354F 		.word	1328876650
 3119 0044 280D393F 		.word	1060703528
 3120              		.cfi_endproc
 3121              	.LFE3632:
 3123              		.section	.text._Z17enclosure_Bf_funcd,"ax",%progbits
 3124              		.align	1
 3125              		.p2align 2,,3
 3126              		.global	_Z17enclosure_Bf_funcd
 3127              		.syntax unified
 3128              		.thumb
 3129              		.thumb_func
 3131              	_Z17enclosure_Bf_funcd:
 3132              	.LVL278:
 3133              	.LFB3633:
 114:enclosure_funcs.hpp **** 
 115:enclosure_funcs.hpp **** // B
 116:enclosure_funcs.hpp **** CREATE_ENCLOSURE_FUNC(Bf, 0.375000000000000,	2.412541041166445e+03,	1.024742154142541,	0.8137388664
 3134              		.loc 7 116 1 is_stmt 1 view -0
 3135              		.cfi_startproc
 3136              		@ args = 0, pretend = 0, frame = 0
 3137              		@ frame_needed = 0, uses_anonymous_args = 0
 3138              		.loc 7 116 1 view .LVU510
 3139              		.loc 7 116 1 view .LVU511
 3140              		.loc 7 116 1 view .LVU512
 3141 0000 9FED091B 		vldr.64	d1, .L228
 3142 0004 08B5     		push	{r3, lr}
 3143              		.cfi_def_cfa_offset 8
 3144              		.cfi_offset 3, -8
 3145              		.cfi_offset 14, -4
 3146              		.loc 7 116 1 is_stmt 0 view .LVU513
 3147 0006 FFF7FEFF 		bl	pow
 3148              	.LVL279:
 3149              		.loc 7 116 1 discriminator 1 view .LVU514
 3150 000a 9FED097B 		vldr.64	d7, .L228+8
 3151 000e 20EE070B 		vmul.f64	d0, d0, d7
 3152 0012 FFF7FEFF 		bl	exp
 3153              	.LVL280:
 3154              		.loc 7 116 1 is_stmt 1 discriminator 2 view .LVU515
 3155 0016 9FED086B 		vldr.64	d6, .L228+16
 3156 001a 9FED097B 		vldr.64	d7, .L228+24
 3157 001e 20EE060B 		vmul.f64	d0, d0, d6
 3158              	.LVL281:
 3159              		.loc 7 116 1 is_stmt 0 view .LVU516
 3160 0022 20EE070B 		vmul.f64	d0, d0, d7
 3161              	.LVL282:
 3162              		.loc 7 116 1 view .LVU517
 3163 0026 08BD     		pop	{r3, pc}
 3164              	.L229:
 3165              		.align	3
 3166              	.L228:
ARM GAS  C:\Users\Owner\AppData\Local\Temp\ccv0lMJk.s 			page 63


 3167 0028 EA845A17 		.word	391808234
 3168 002c 260AEA3F 		.word	1072302630
 3169 0030 33FF6D07 		.word	124649267
 3170 0034 5865F0BF 		.word	-1074764456
 3171 0038 58075903 		.word	56166232
 3172 003c 15D9A240 		.word	1084414229
 3173 0040 C7B3000A 		.word	167818183
 3174 0044 2B2A3B3F 		.word	1060842027
 3175              		.cfi_endproc
 3176              	.LFE3633:
 3178              		.section	.text._Z18enclosure_Bh1_funcd,"ax",%progbits
 3179              		.align	1
 3180              		.p2align 2,,3
 3181              		.global	_Z18enclosure_Bh1_funcd
 3182              		.syntax unified
 3183              		.thumb
 3184              		.thumb_func
 3186              	_Z18enclosure_Bh1_funcd:
 3187              	.LVL283:
 3188              	.LFB3634:
 117:enclosure_funcs.hpp **** CREATE_ENCLOSURE_FUNC(Bh1, 0.500000000000000,	4.842259736167720e+02,	0.909750493931122,	0.879187852
 3189              		.loc 7 117 1 is_stmt 1 view -0
 3190              		.cfi_startproc
 3191              		@ args = 0, pretend = 0, frame = 0
 3192              		@ frame_needed = 0, uses_anonymous_args = 0
 3193              		.loc 7 117 1 view .LVU519
 3194              		.loc 7 117 1 view .LVU520
 3195              		.loc 7 117 1 view .LVU521
 3196 0000 9FED091B 		vldr.64	d1, .L232
 3197 0004 08B5     		push	{r3, lr}
 3198              		.cfi_def_cfa_offset 8
 3199              		.cfi_offset 3, -8
 3200              		.cfi_offset 14, -4
 3201              		.loc 7 117 1 is_stmt 0 view .LVU522
 3202 0006 FFF7FEFF 		bl	pow
 3203              	.LVL284:
 3204              		.loc 7 117 1 discriminator 1 view .LVU523
 3205 000a 9FED097B 		vldr.64	d7, .L232+8
 3206 000e 20EE070B 		vmul.f64	d0, d0, d7
 3207 0012 FFF7FEFF 		bl	exp
 3208              	.LVL285:
 3209              		.loc 7 117 1 is_stmt 1 discriminator 2 view .LVU524
 3210 0016 9FED086B 		vldr.64	d6, .L232+16
 3211 001a 9FED097B 		vldr.64	d7, .L232+24
 3212 001e 20EE060B 		vmul.f64	d0, d0, d6
 3213              	.LVL286:
 3214              		.loc 7 117 1 is_stmt 0 view .LVU525
 3215 0022 20EE070B 		vmul.f64	d0, d0, d7
 3216              	.LVL287:
 3217              		.loc 7 117 1 view .LVU526
 3218 0026 08BD     		pop	{r3, pc}
 3219              	.L233:
 3220              		.align	3
 3221              	.L232:
 3222 0028 B01EF68F 		.word	-1879695696
 3223 002c 4E22EC3F 		.word	1072439886
 3224 0030 4B875E11 		.word	291407691
ARM GAS  C:\Users\Owner\AppData\Local\Temp\ccv0lMJk.s 			page 64


 3225 0034 AD1CEDBF 		.word	-1074979667
 3226 0038 B7DC8296 		.word	-1769808713
 3227 003c 9D437E40 		.word	1082016669
 3228 0040 C7B3000A 		.word	167818183
 3229 0044 2B2A3B3F 		.word	1060842027
 3230              		.cfi_endproc
 3231              	.LFE3634:
 3233              		.section	.text._Z18enclosure_Bh2_funcd,"ax",%progbits
 3234              		.align	1
 3235              		.p2align 2,,3
 3236              		.global	_Z18enclosure_Bh2_funcd
 3237              		.syntax unified
 3238              		.thumb
 3239              		.thumb_func
 3241              	_Z18enclosure_Bh2_funcd:
 3242              	.LVL288:
 3243              	.LFB3635:
 118:enclosure_funcs.hpp **** CREATE_ENCLOSURE_FUNC(Bh2, 0.250000000000000,	4.081502887870569e+02,	1.366839793278135,	0.659313585
 3244              		.loc 7 118 1 is_stmt 1 view -0
 3245              		.cfi_startproc
 3246              		@ args = 0, pretend = 0, frame = 0
 3247              		@ frame_needed = 0, uses_anonymous_args = 0
 3248              		.loc 7 118 1 view .LVU528
 3249              		.loc 7 118 1 view .LVU529
 3250              		.loc 7 118 1 view .LVU530
 3251 0000 9FED091B 		vldr.64	d1, .L236
 3252 0004 08B5     		push	{r3, lr}
 3253              		.cfi_def_cfa_offset 8
 3254              		.cfi_offset 3, -8
 3255              		.cfi_offset 14, -4
 3256              		.loc 7 118 1 is_stmt 0 view .LVU531
 3257 0006 FFF7FEFF 		bl	pow
 3258              	.LVL289:
 3259              		.loc 7 118 1 discriminator 1 view .LVU532
 3260 000a 9FED097B 		vldr.64	d7, .L236+8
 3261 000e 20EE070B 		vmul.f64	d0, d0, d7
 3262 0012 FFF7FEFF 		bl	exp
 3263              	.LVL290:
 3264              		.loc 7 118 1 is_stmt 1 discriminator 2 view .LVU533
 3265 0016 9FED086B 		vldr.64	d6, .L236+16
 3266 001a 9FED097B 		vldr.64	d7, .L236+24
 3267 001e 20EE060B 		vmul.f64	d0, d0, d6
 3268              	.LVL291:
 3269              		.loc 7 118 1 is_stmt 0 view .LVU534
 3270 0022 20EE070B 		vmul.f64	d0, d0, d7
 3271              	.LVL292:
 3272              		.loc 7 118 1 view .LVU535
 3273 0026 08BD     		pop	{r3, pc}
 3274              	.L237:
 3275              		.align	3
 3276              	.L236:
 3277 0028 C8E1C9CD 		.word	-842407480
 3278 002c 1819E53F 		.word	1071978776
 3279 0030 0F043067 		.word	1731200015
 3280 0034 93DEF5BF 		.word	-1074405741
 3281 0038 D7153795 		.word	-1791552041
 3282 003c 67827940 		.word	1081705063
ARM GAS  C:\Users\Owner\AppData\Local\Temp\ccv0lMJk.s 			page 65


 3283 0040 C7B3000A 		.word	167818183
 3284 0044 2B2A3B3F 		.word	1060842027
 3285              		.cfi_endproc
 3286              	.LFE3635:
 3288              		.section	.text._Z18enclosure_Bh3_funcd,"ax",%progbits
 3289              		.align	1
 3290              		.p2align 2,,3
 3291              		.global	_Z18enclosure_Bh3_funcd
 3292              		.syntax unified
 3293              		.thumb
 3294              		.thumb_func
 3296              	_Z18enclosure_Bh3_funcd:
 3297              	.LVL293:
 3298              	.LFB3636:
 119:enclosure_funcs.hpp **** CREATE_ENCLOSURE_FUNC(Bh3, 0.375000000000000,	1.373608495517038e+02,	0.976236162849414,	0.835101162
 3299              		.loc 7 119 1 is_stmt 1 view -0
 3300              		.cfi_startproc
 3301              		@ args = 0, pretend = 0, frame = 0
 3302              		@ frame_needed = 0, uses_anonymous_args = 0
 3303              		.loc 7 119 1 view .LVU537
 3304              		.loc 7 119 1 view .LVU538
 3305              		.loc 7 119 1 view .LVU539
 3306 0000 9FED091B 		vldr.64	d1, .L240
 3307 0004 08B5     		push	{r3, lr}
 3308              		.cfi_def_cfa_offset 8
 3309              		.cfi_offset 3, -8
 3310              		.cfi_offset 14, -4
 3311              		.loc 7 119 1 is_stmt 0 view .LVU540
 3312 0006 FFF7FEFF 		bl	pow
 3313              	.LVL294:
 3314              		.loc 7 119 1 discriminator 1 view .LVU541
 3315 000a 9FED097B 		vldr.64	d7, .L240+8
 3316 000e 20EE070B 		vmul.f64	d0, d0, d7
 3317 0012 FFF7FEFF 		bl	exp
 3318              	.LVL295:
 3319              		.loc 7 119 1 is_stmt 1 discriminator 2 view .LVU542
 3320 0016 9FED086B 		vldr.64	d6, .L240+16
 3321 001a 9FED097B 		vldr.64	d7, .L240+24
 3322 001e 20EE060B 		vmul.f64	d0, d0, d6
 3323              	.LVL296:
 3324              		.loc 7 119 1 is_stmt 0 view .LVU543
 3325 0022 20EE070B 		vmul.f64	d0, d0, d7
 3326              	.LVL297:
 3327              		.loc 7 119 1 view .LVU544
 3328 0026 08BD     		pop	{r3, pc}
 3329              	.L241:
 3330              		.align	3
 3331              	.L240:
 3332 0028 6696A612 		.word	312907366
 3333 002c 26B9EA3F 		.word	1072347430
 3334 0030 5F8B139F 		.word	-1626109089
 3335 0034 533DEFBF 		.word	-1074840237
 3336 0038 03EB5B14 		.word	341568259
 3337 003c 8C2B6140 		.word	1080109964
 3338 0040 C7B3000A 		.word	167818183
 3339 0044 2B2A3B3F 		.word	1060842027
 3340              		.cfi_endproc
ARM GAS  C:\Users\Owner\AppData\Local\Temp\ccv0lMJk.s 			page 66


 3341              	.LFE3636:
 3343              		.section	.text._Z18enclosure_Bh4_funcd,"ax",%progbits
 3344              		.align	1
 3345              		.p2align 2,,3
 3346              		.global	_Z18enclosure_Bh4_funcd
 3347              		.syntax unified
 3348              		.thumb
 3349              		.thumb_func
 3351              	_Z18enclosure_Bh4_funcd:
 3352              	.LVL298:
 3353              	.LFB3637:
 120:enclosure_funcs.hpp **** CREATE_ENCLOSURE_FUNC(Bh4, 0.250000000000000,	4.719800802690910e+02,	1.650632382799276,	0.672438746
 3354              		.loc 7 120 1 is_stmt 1 view -0
 3355              		.cfi_startproc
 3356              		@ args = 0, pretend = 0, frame = 0
 3357              		@ frame_needed = 0, uses_anonymous_args = 0
 3358              		.loc 7 120 1 view .LVU546
 3359              		.loc 7 120 1 view .LVU547
 3360              		.loc 7 120 1 view .LVU548
 3361 0000 9FED091B 		vldr.64	d1, .L244
 3362 0004 08B5     		push	{r3, lr}
 3363              		.cfi_def_cfa_offset 8
 3364              		.cfi_offset 3, -8
 3365              		.cfi_offset 14, -4
 3366              		.loc 7 120 1 is_stmt 0 view .LVU549
 3367 0006 FFF7FEFF 		bl	pow
 3368              	.LVL299:
 3369              		.loc 7 120 1 discriminator 1 view .LVU550
 3370 000a 9FED097B 		vldr.64	d7, .L244+8
 3371 000e 20EE070B 		vmul.f64	d0, d0, d7
 3372 0012 FFF7FEFF 		bl	exp
 3373              	.LVL300:
 3374              		.loc 7 120 1 is_stmt 1 discriminator 2 view .LVU551
 3375 0016 9FED086B 		vldr.64	d6, .L244+16
 3376 001a 9FED097B 		vldr.64	d7, .L244+24
 3377 001e 20EE060B 		vmul.f64	d0, d0, d6
 3378              	.LVL301:
 3379              		.loc 7 120 1 is_stmt 0 view .LVU552
 3380 0022 20EE070B 		vmul.f64	d0, d0, d7
 3381              	.LVL302:
 3382              		.loc 7 120 1 view .LVU553
 3383 0026 08BD     		pop	{r3, pc}
 3384              	.L245:
 3385              		.align	3
 3386              	.L244:
 3387 0028 85742A43 		.word	1126855813
 3388 002c 9E84E53F 		.word	1072006302
 3389 0030 8D765D80 		.word	-2141358451
 3390 0034 FD68FABF 		.word	-1074108163
 3391 0038 36F3A568 		.word	1755706166
 3392 003c AE7F7D40 		.word	1081966510
 3393 0040 C7B3000A 		.word	167818183
 3394 0044 2B2A3B3F 		.word	1060842027
 3395              		.cfi_endproc
 3396              	.LFE3637:
 3398              		.section	.text._Z19enclosure_C_Of_funcd,"ax",%progbits
 3399              		.align	1
ARM GAS  C:\Users\Owner\AppData\Local\Temp\ccv0lMJk.s 			page 67


 3400              		.p2align 2,,3
 3401              		.global	_Z19enclosure_C_Of_funcd
 3402              		.syntax unified
 3403              		.thumb
 3404              		.thumb_func
 3406              	_Z19enclosure_C_Of_funcd:
 3407              	.LVL303:
 3408              	.LFB3638:
 121:enclosure_funcs.hpp **** 
 122:enclosure_funcs.hpp **** // C O
 123:enclosure_funcs.hpp **** CREATE_ENCLOSURE_FUNC(C_Of, 0.375000000000000,	2.644537585705844e+03,	0.853864645087106,	0.90279536
 3409              		.loc 7 123 1 is_stmt 1 view -0
 3410              		.cfi_startproc
 3411              		@ args = 0, pretend = 0, frame = 0
 3412              		@ frame_needed = 0, uses_anonymous_args = 0
 3413              		.loc 7 123 1 view .LVU555
 3414              		.loc 7 123 1 view .LVU556
 3415              		.loc 7 123 1 view .LVU557
 3416 0000 9FED091B 		vldr.64	d1, .L248
 3417 0004 08B5     		push	{r3, lr}
 3418              		.cfi_def_cfa_offset 8
 3419              		.cfi_offset 3, -8
 3420              		.cfi_offset 14, -4
 3421              		.loc 7 123 1 is_stmt 0 view .LVU558
 3422 0006 FFF7FEFF 		bl	pow
 3423              	.LVL304:
 3424              		.loc 7 123 1 discriminator 1 view .LVU559
 3425 000a 9FED097B 		vldr.64	d7, .L248+8
 3426 000e 20EE070B 		vmul.f64	d0, d0, d7
 3427 0012 FFF7FEFF 		bl	exp
 3428              	.LVL305:
 3429              		.loc 7 123 1 is_stmt 1 discriminator 2 view .LVU560
 3430 0016 9FED086B 		vldr.64	d6, .L248+16
 3431 001a 9FED097B 		vldr.64	d7, .L248+24
 3432 001e 20EE060B 		vmul.f64	d0, d0, d6
 3433              	.LVL306:
 3434              		.loc 7 123 1 is_stmt 0 view .LVU561
 3435 0022 20EE070B 		vmul.f64	d0, d0, d7
 3436              	.LVL307:
 3437              		.loc 7 123 1 view .LVU562
 3438 0026 08BD     		pop	{r3, pc}
 3439              	.L249:
 3440              		.align	3
 3441              	.L248:
 3442 0028 DCF0A11A 		.word	446820572
 3443 002c B3E3EC3F 		.word	1072489395
 3444 0030 3783BBF2 		.word	-222592201
 3445 0034 DB52EBBF 		.word	-1075096869
 3446 0038 CB026F3E 		.word	1047462603
 3447 003c 13A9A440 		.word	1084533011
 3448 0040 90870C18 		.word	403474320
 3449 0044 1AC8383F 		.word	1060685850
 3450              		.cfi_endproc
 3451              	.LFE3638:
 3453              		.section	.text._Z20enclosure_C_Oh1_funcd,"ax",%progbits
 3454              		.align	1
 3455              		.p2align 2,,3
ARM GAS  C:\Users\Owner\AppData\Local\Temp\ccv0lMJk.s 			page 68


 3456              		.global	_Z20enclosure_C_Oh1_funcd
 3457              		.syntax unified
 3458              		.thumb
 3459              		.thumb_func
 3461              	_Z20enclosure_C_Oh1_funcd:
 3462              	.LVL308:
 3463              	.LFB3639:
 124:enclosure_funcs.hpp **** CREATE_ENCLOSURE_FUNC(C_Oh1, 0.125000000000000,	7.530610650930616e+02,	0.714017571814060,	1.1556836
 3464              		.loc 7 124 1 is_stmt 1 view -0
 3465              		.cfi_startproc
 3466              		@ args = 0, pretend = 0, frame = 0
 3467              		@ frame_needed = 0, uses_anonymous_args = 0
 3468              		.loc 7 124 1 view .LVU564
 3469              		.loc 7 124 1 view .LVU565
 3470              		.loc 7 124 1 view .LVU566
 3471 0000 9FED091B 		vldr.64	d1, .L252
 3472 0004 08B5     		push	{r3, lr}
 3473              		.cfi_def_cfa_offset 8
 3474              		.cfi_offset 3, -8
 3475              		.cfi_offset 14, -4
 3476              		.loc 7 124 1 is_stmt 0 view .LVU567
 3477 0006 FFF7FEFF 		bl	pow
 3478              	.LVL309:
 3479              		.loc 7 124 1 discriminator 1 view .LVU568
 3480 000a 9FED097B 		vldr.64	d7, .L252+8
 3481 000e 20EE070B 		vmul.f64	d0, d0, d7
 3482 0012 FFF7FEFF 		bl	exp
 3483              	.LVL310:
 3484              		.loc 7 124 1 is_stmt 1 discriminator 2 view .LVU569
 3485 0016 9FED086B 		vldr.64	d6, .L252+16
 3486 001a 9FED097B 		vldr.64	d7, .L252+24
 3487 001e 20EE060B 		vmul.f64	d0, d0, d6
 3488              	.LVL311:
 3489              		.loc 7 124 1 is_stmt 0 view .LVU570
 3490 0022 20EE070B 		vmul.f64	d0, d0, d7
 3491              	.LVL312:
 3492              		.loc 7 124 1 view .LVU571
 3493 0026 08BD     		pop	{r3, pc}
 3494              	.L253:
 3495              		.align	3
 3496              	.L252:
 3497 0028 F3CBC227 		.word	667077619
 3498 002c AE7DF23F 		.word	1072856494
 3499 0030 36BEF660 		.word	1626783286
 3500 0034 3BD9E6BF 		.word	-1075390149
 3501 0038 040DB20F 		.word	263326980
 3502 003c 7D888740 		.word	1082624125
 3503 0040 90870C18 		.word	403474320
 3504 0044 1AC8383F 		.word	1060685850
 3505              		.cfi_endproc
 3506              	.LFE3639:
 3508              		.section	.text._Z20enclosure_C_Oh2_funcd,"ax",%progbits
 3509              		.align	1
 3510              		.p2align 2,,3
 3511              		.global	_Z20enclosure_C_Oh2_funcd
 3512              		.syntax unified
 3513              		.thumb
ARM GAS  C:\Users\Owner\AppData\Local\Temp\ccv0lMJk.s 			page 69


 3514              		.thumb_func
 3516              	_Z20enclosure_C_Oh2_funcd:
 3517              	.LVL313:
 3518              	.LFB3640:
 125:enclosure_funcs.hpp **** CREATE_ENCLOSURE_FUNC(C_Oh2, 0.500000000000000,	1.068550568025645e+02,	1.781180144072920,	0.7222235
 3519              		.loc 7 125 1 is_stmt 1 view -0
 3520              		.cfi_startproc
 3521              		@ args = 0, pretend = 0, frame = 0
 3522              		@ frame_needed = 0, uses_anonymous_args = 0
 3523              		.loc 7 125 1 view .LVU573
 3524              		.loc 7 125 1 view .LVU574
 3525              		.loc 7 125 1 view .LVU575
 3526 0000 9FED091B 		vldr.64	d1, .L256
 3527 0004 08B5     		push	{r3, lr}
 3528              		.cfi_def_cfa_offset 8
 3529              		.cfi_offset 3, -8
 3530              		.cfi_offset 14, -4
 3531              		.loc 7 125 1 is_stmt 0 view .LVU576
 3532 0006 FFF7FEFF 		bl	pow
 3533              	.LVL314:
 3534              		.loc 7 125 1 discriminator 1 view .LVU577
 3535 000a 9FED097B 		vldr.64	d7, .L256+8
 3536 000e 20EE070B 		vmul.f64	d0, d0, d7
 3537 0012 FFF7FEFF 		bl	exp
 3538              	.LVL315:
 3539              		.loc 7 125 1 is_stmt 1 discriminator 2 view .LVU578
 3540 0016 9FED086B 		vldr.64	d6, .L256+16
 3541 001a 9FED097B 		vldr.64	d7, .L256+24
 3542 001e 20EE060B 		vmul.f64	d0, d0, d6
 3543              	.LVL316:
 3544              		.loc 7 125 1 is_stmt 0 view .LVU579
 3545 0022 20EE070B 		vmul.f64	d0, d0, d7
 3546              	.LVL317:
 3547              		.loc 7 125 1 view .LVU580
 3548 0026 08BD     		pop	{r3, pc}
 3549              	.L257:
 3550              		.align	3
 3551              	.L256:
 3552 0028 A568E68D 		.word	-1914279771
 3553 002c 741CE73F 		.word	1072110708
 3554 0030 813E31C0 		.word	-1070514559
 3555 0034 B67FFCBF 		.word	-1073971274
 3556 0038 29CF2A40 		.word	1076547369
 3557 003c B9B65A40 		.word	1079686841
 3558 0040 90870C18 		.word	403474320
 3559 0044 1AC8383F 		.word	1060685850
 3560              		.cfi_endproc
 3561              	.LFE3640:
 3563              		.section	.text._Z20enclosure_C_Oh3_funcd,"ax",%progbits
 3564              		.align	1
 3565              		.p2align 2,,3
 3566              		.global	_Z20enclosure_C_Oh3_funcd
 3567              		.syntax unified
 3568              		.thumb
 3569              		.thumb_func
 3571              	_Z20enclosure_C_Oh3_funcd:
 3572              	.LVL318:
ARM GAS  C:\Users\Owner\AppData\Local\Temp\ccv0lMJk.s 			page 70


 3573              	.LFB3641:
 126:enclosure_funcs.hpp **** CREATE_ENCLOSURE_FUNC(C_Oh3, 0.125000000000000,	3.130707019866093e+02,	1.876948142366194,	0.7333479
 3574              		.loc 7 126 1 is_stmt 1 view -0
 3575              		.cfi_startproc
 3576              		@ args = 0, pretend = 0, frame = 0
 3577              		@ frame_needed = 0, uses_anonymous_args = 0
 3578              		.loc 7 126 1 view .LVU582
 3579              		.loc 7 126 1 view .LVU583
 3580              		.loc 7 126 1 view .LVU584
 3581 0000 9FED091B 		vldr.64	d1, .L260
 3582 0004 08B5     		push	{r3, lr}
 3583              		.cfi_def_cfa_offset 8
 3584              		.cfi_offset 3, -8
 3585              		.cfi_offset 14, -4
 3586              		.loc 7 126 1 is_stmt 0 view .LVU585
 3587 0006 FFF7FEFF 		bl	pow
 3588              	.LVL319:
 3589              		.loc 7 126 1 discriminator 1 view .LVU586
 3590 000a 9FED097B 		vldr.64	d7, .L260+8
 3591 000e 20EE070B 		vmul.f64	d0, d0, d7
 3592 0012 FFF7FEFF 		bl	exp
 3593              	.LVL320:
 3594              		.loc 7 126 1 is_stmt 1 discriminator 2 view .LVU587
 3595 0016 9FED086B 		vldr.64	d6, .L260+16
 3596 001a 9FED097B 		vldr.64	d7, .L260+24
 3597 001e 20EE060B 		vmul.f64	d0, d0, d6
 3598              	.LVL321:
 3599              		.loc 7 126 1 is_stmt 0 view .LVU588
 3600 0022 20EE070B 		vmul.f64	d0, d0, d7
 3601              	.LVL322:
 3602              		.loc 7 126 1 view .LVU589
 3603 0026 08BD     		pop	{r3, pc}
 3604              	.L261:
 3605              		.align	3
 3606              	.L260:
 3607 0028 DEBFDA04 		.word	81444830
 3608 002c 9677E73F 		.word	1072134038
 3609 0030 18037CC6 		.word	-964951272
 3610 0034 FA07FEBF 		.word	-1073870854
 3611 0038 FD036898 		.word	-1738013699
 3612 003c 21917340 		.word	1081315617
 3613 0040 90870C18 		.word	403474320
 3614 0044 1AC8383F 		.word	1060685850
 3615              		.cfi_endproc
 3616              	.LFE3641:
 3618              		.section	.text._Z20enclosure_C_Oh4_funcd,"ax",%progbits
 3619              		.align	1
 3620              		.p2align 2,,3
 3621              		.global	_Z20enclosure_C_Oh4_funcd
 3622              		.syntax unified
 3623              		.thumb
 3624              		.thumb_func
 3626              	_Z20enclosure_C_Oh4_funcd:
 3627              	.LVL323:
 3628              	.LFB3642:
 127:enclosure_funcs.hpp **** CREATE_ENCLOSURE_FUNC(C_Oh4, 0.125000000000000,	1.595327499843756e+02,	1.534986563683492,	0.8383145
 3629              		.loc 7 127 1 is_stmt 1 view -0
ARM GAS  C:\Users\Owner\AppData\Local\Temp\ccv0lMJk.s 			page 71


 3630              		.cfi_startproc
 3631              		@ args = 0, pretend = 0, frame = 0
 3632              		@ frame_needed = 0, uses_anonymous_args = 0
 3633              		.loc 7 127 1 view .LVU591
 3634              		.loc 7 127 1 view .LVU592
 3635              		.loc 7 127 1 view .LVU593
 3636 0000 9FED091B 		vldr.64	d1, .L264
 3637 0004 08B5     		push	{r3, lr}
 3638              		.cfi_def_cfa_offset 8
 3639              		.cfi_offset 3, -8
 3640              		.cfi_offset 14, -4
 3641              		.loc 7 127 1 is_stmt 0 view .LVU594
 3642 0006 FFF7FEFF 		bl	pow
 3643              	.LVL324:
 3644              		.loc 7 127 1 discriminator 1 view .LVU595
 3645 000a 9FED097B 		vldr.64	d7, .L264+8
 3646 000e 20EE070B 		vmul.f64	d0, d0, d7
 3647 0012 FFF7FEFF 		bl	exp
 3648              	.LVL325:
 3649              		.loc 7 127 1 is_stmt 1 discriminator 2 view .LVU596
 3650 0016 9FED086B 		vldr.64	d6, .L264+16
 3651 001a 9FED097B 		vldr.64	d7, .L264+24
 3652 001e 20EE060B 		vmul.f64	d0, d0, d6
 3653              	.LVL326:
 3654              		.loc 7 127 1 is_stmt 0 view .LVU597
 3655 0022 20EE070B 		vmul.f64	d0, d0, d7
 3656              	.LVL327:
 3657              		.loc 7 127 1 view .LVU598
 3658 0026 08BD     		pop	{r3, pc}
 3659              	.L265:
 3660              		.align	3
 3661              	.L264:
 3662 0028 0FCCC121 		.word	566348815
 3663 002c 79D3EA3F 		.word	1072354169
 3664 0030 CD1E2D12 		.word	304946893
 3665 0034 4E8FF8BF 		.word	-1074229426
 3666 0038 CFFAB149 		.word	1236400847
 3667 003c 0CF16340 		.word	1080291596
 3668 0040 90870C18 		.word	403474320
 3669 0044 1AC8383F 		.word	1060685850
 3670              		.cfi_endproc
 3671              	.LFE3642:
 3673              		.section	.text._Z25enclosure_C_O_Sharpf_funcd,"ax",%progbits
 3674              		.align	1
 3675              		.p2align 2,,3
 3676              		.global	_Z25enclosure_C_O_Sharpf_funcd
 3677              		.syntax unified
 3678              		.thumb
 3679              		.thumb_func
 3681              	_Z25enclosure_C_O_Sharpf_funcd:
 3682              	.LVL328:
 3683              	.LFB3643:
 128:enclosure_funcs.hpp **** 
 129:enclosure_funcs.hpp **** // C# O
 130:enclosure_funcs.hpp **** CREATE_ENCLOSURE_FUNC(C_O_Sharpf, 0.250000000000000,	3.073714876603922e+03,	0.423253782942305,	1.13
 3684              		.loc 7 130 1 is_stmt 1 view -0
 3685              		.cfi_startproc
ARM GAS  C:\Users\Owner\AppData\Local\Temp\ccv0lMJk.s 			page 72


 3686              		@ args = 0, pretend = 0, frame = 0
 3687              		@ frame_needed = 0, uses_anonymous_args = 0
 3688              		.loc 7 130 1 view .LVU600
 3689              		.loc 7 130 1 view .LVU601
 3690              		.loc 7 130 1 view .LVU602
 3691 0000 9FED091B 		vldr.64	d1, .L268
 3692 0004 08B5     		push	{r3, lr}
 3693              		.cfi_def_cfa_offset 8
 3694              		.cfi_offset 3, -8
 3695              		.cfi_offset 14, -4
 3696              		.loc 7 130 1 is_stmt 0 view .LVU603
 3697 0006 FFF7FEFF 		bl	pow
 3698              	.LVL329:
 3699              		.loc 7 130 1 discriminator 1 view .LVU604
 3700 000a 9FED097B 		vldr.64	d7, .L268+8
 3701 000e 20EE070B 		vmul.f64	d0, d0, d7
 3702 0012 FFF7FEFF 		bl	exp
 3703              	.LVL330:
 3704              		.loc 7 130 1 is_stmt 1 discriminator 2 view .LVU605
 3705 0016 9FED086B 		vldr.64	d6, .L268+16
 3706 001a 9FED097B 		vldr.64	d7, .L268+24
 3707 001e 20EE060B 		vmul.f64	d0, d0, d6
 3708              	.LVL331:
 3709              		.loc 7 130 1 is_stmt 0 view .LVU606
 3710 0022 20EE070B 		vmul.f64	d0, d0, d7
 3711              	.LVL332:
 3712              		.loc 7 130 1 view .LVU607
 3713 0026 08BD     		pop	{r3, pc}
 3714              	.L269:
 3715              		.align	3
 3716              	.L268:
 3717 0028 522AB4ED 		.word	-306959790
 3718 002c A218F23F 		.word	1072830626
 3719 0030 964FE908 		.word	149507990
 3720 0034 9716DBBF 		.word	-1076160873
 3721 0038 0B654E04 		.word	72246539
 3722 003c 6E03A840 		.word	1084752750
 3723 0040 40BD324F 		.word	1328725312
 3724 0044 4952353F 		.word	1060459081
 3725              		.cfi_endproc
 3726              	.LFE3643:
 3728              		.section	.text._Z26enclosure_C_O_Sharph1_funcd,"ax",%progbits
 3729              		.align	1
 3730              		.p2align 2,,3
 3731              		.global	_Z26enclosure_C_O_Sharph1_funcd
 3732              		.syntax unified
 3733              		.thumb
 3734              		.thumb_func
 3736              	_Z26enclosure_C_O_Sharph1_funcd:
 3737              	.LVL333:
 3738              	.LFB3644:
 131:enclosure_funcs.hpp **** CREATE_ENCLOSURE_FUNC(C_O_Sharph1, 0.500000000000000,	2.389831468415528e+02,	0.639675473270383,	0.9
 3739              		.loc 7 131 1 is_stmt 1 view -0
 3740              		.cfi_startproc
 3741              		@ args = 0, pretend = 0, frame = 0
 3742              		@ frame_needed = 0, uses_anonymous_args = 0
 3743              		.loc 7 131 1 view .LVU609
ARM GAS  C:\Users\Owner\AppData\Local\Temp\ccv0lMJk.s 			page 73


 3744              		.loc 7 131 1 view .LVU610
 3745              		.loc 7 131 1 view .LVU611
 3746 0000 9FED091B 		vldr.64	d1, .L272
 3747 0004 08B5     		push	{r3, lr}
 3748              		.cfi_def_cfa_offset 8
 3749              		.cfi_offset 3, -8
 3750              		.cfi_offset 14, -4
 3751              		.loc 7 131 1 is_stmt 0 view .LVU612
 3752 0006 FFF7FEFF 		bl	pow
 3753              	.LVL334:
 3754              		.loc 7 131 1 discriminator 1 view .LVU613
 3755 000a 9FED097B 		vldr.64	d7, .L272+8
 3756 000e 20EE070B 		vmul.f64	d0, d0, d7
 3757 0012 FFF7FEFF 		bl	exp
 3758              	.LVL335:
 3759              		.loc 7 131 1 is_stmt 1 discriminator 2 view .LVU614
 3760 0016 9FED086B 		vldr.64	d6, .L272+16
 3761 001a 9FED097B 		vldr.64	d7, .L272+24
 3762 001e 20EE060B 		vmul.f64	d0, d0, d6
 3763              	.LVL336:
 3764              		.loc 7 131 1 is_stmt 0 view .LVU615
 3765 0022 20EE070B 		vmul.f64	d0, d0, d7
 3766              	.LVL337:
 3767              		.loc 7 131 1 view .LVU616
 3768 0026 08BD     		pop	{r3, pc}
 3769              	.L273:
 3770              		.align	3
 3771              	.L272:
 3772 0028 748EA90B 		.word	195661428
 3773 002c F5B7EE3F 		.word	1072609269
 3774 0030 DDFCB7B2 		.word	-1296565027
 3775 0034 3878E4BF 		.word	-1075546056
 3776 0038 52745DF0 		.word	-262310830
 3777 003c 75DF6D40 		.word	1080942453
 3778 0040 40BD324F 		.word	1328725312
 3779 0044 4952353F 		.word	1060459081
 3780              		.cfi_endproc
 3781              	.LFE3644:
 3783              		.section	.text._Z26enclosure_C_O_Sharph2_funcd,"ax",%progbits
 3784              		.align	1
 3785              		.p2align 2,,3
 3786              		.global	_Z26enclosure_C_O_Sharph2_funcd
 3787              		.syntax unified
 3788              		.thumb
 3789              		.thumb_func
 3791              	_Z26enclosure_C_O_Sharph2_funcd:
 3792              	.LVL338:
 3793              	.LFB3645:
 132:enclosure_funcs.hpp **** CREATE_ENCLOSURE_FUNC(C_O_Sharph2, 0.125000000000000,	2.321924945219848e+02,	2.245836381280983,	0.6
 3794              		.loc 7 132 1 is_stmt 1 view -0
 3795              		.cfi_startproc
 3796              		@ args = 0, pretend = 0, frame = 0
 3797              		@ frame_needed = 0, uses_anonymous_args = 0
 3798              		.loc 7 132 1 view .LVU618
 3799              		.loc 7 132 1 view .LVU619
 3800              		.loc 7 132 1 view .LVU620
 3801 0000 9FED091B 		vldr.64	d1, .L276
ARM GAS  C:\Users\Owner\AppData\Local\Temp\ccv0lMJk.s 			page 74


 3802 0004 08B5     		push	{r3, lr}
 3803              		.cfi_def_cfa_offset 8
 3804              		.cfi_offset 3, -8
 3805              		.cfi_offset 14, -4
 3806              		.loc 7 132 1 is_stmt 0 view .LVU621
 3807 0006 FFF7FEFF 		bl	pow
 3808              	.LVL339:
 3809              		.loc 7 132 1 discriminator 1 view .LVU622
 3810 000a 9FED097B 		vldr.64	d7, .L276+8
 3811 000e 20EE070B 		vmul.f64	d0, d0, d7
 3812 0012 FFF7FEFF 		bl	exp
 3813              	.LVL340:
 3814              		.loc 7 132 1 is_stmt 1 discriminator 2 view .LVU623
 3815 0016 9FED086B 		vldr.64	d6, .L276+16
 3816 001a 9FED097B 		vldr.64	d7, .L276+24
 3817 001e 20EE060B 		vmul.f64	d0, d0, d6
 3818              	.LVL341:
 3819              		.loc 7 132 1 is_stmt 0 view .LVU624
 3820 0022 20EE070B 		vmul.f64	d0, d0, d7
 3821              	.LVL342:
 3822              		.loc 7 132 1 view .LVU625
 3823 0026 08BD     		pop	{r3, pc}
 3824              	.L277:
 3825              		.align	3
 3826              	.L276:
 3827 0028 7D362A33 		.word	858404477
 3828 002c DBC9E53F 		.word	1072024027
 3829 0030 85268E10 		.word	277751429
 3830 0034 79F701C0 		.word	-1073612935
 3831 0038 AF9245EA 		.word	-364539217
 3832 003c 28066D40 		.word	1080886824
 3833 0040 40BD324F 		.word	1328725312
 3834 0044 4952353F 		.word	1060459081
 3835              		.cfi_endproc
 3836              	.LFE3645:
 3838              		.section	.text._Z26enclosure_C_O_Sharph3_funcd,"ax",%progbits
 3839              		.align	1
 3840              		.p2align 2,,3
 3841              		.global	_Z26enclosure_C_O_Sharph3_funcd
 3842              		.syntax unified
 3843              		.thumb
 3844              		.thumb_func
 3846              	_Z26enclosure_C_O_Sharph3_funcd:
 3847              	.LVL343:
 3848              	.LFB3646:
 133:enclosure_funcs.hpp **** CREATE_ENCLOSURE_FUNC(C_O_Sharph3, 0,	2.299989743652272e+02,	2.872178623953348,	0.548946230378620, 
 3849              		.loc 7 133 1 is_stmt 1 view -0
 3850              		.cfi_startproc
 3851              		@ args = 0, pretend = 0, frame = 0
 3852              		@ frame_needed = 0, uses_anonymous_args = 0
 3853              		.loc 7 133 1 view .LVU627
 3854              		.loc 7 133 1 view .LVU628
 3855              		.loc 7 133 1 view .LVU629
 3856 0000 9FED091B 		vldr.64	d1, .L280
 3857 0004 08B5     		push	{r3, lr}
 3858              		.cfi_def_cfa_offset 8
 3859              		.cfi_offset 3, -8
ARM GAS  C:\Users\Owner\AppData\Local\Temp\ccv0lMJk.s 			page 75


 3860              		.cfi_offset 14, -4
 3861              		.loc 7 133 1 is_stmt 0 view .LVU630
 3862 0006 FFF7FEFF 		bl	pow
 3863              	.LVL344:
 3864              		.loc 7 133 1 discriminator 1 view .LVU631
 3865 000a 9FED097B 		vldr.64	d7, .L280+8
 3866 000e 20EE070B 		vmul.f64	d0, d0, d7
 3867 0012 FFF7FEFF 		bl	exp
 3868              	.LVL345:
 3869              		.loc 7 133 1 is_stmt 1 discriminator 2 view .LVU632
 3870 0016 9FED086B 		vldr.64	d6, .L280+16
 3871 001a 9FED097B 		vldr.64	d7, .L280+24
 3872 001e 20EE060B 		vmul.f64	d0, d0, d6
 3873              	.LVL346:
 3874              		.loc 7 133 1 is_stmt 0 view .LVU633
 3875 0022 20EE070B 		vmul.f64	d0, d0, d7
 3876              	.LVL347:
 3877              		.loc 7 133 1 view .LVU634
 3878 0026 08BD     		pop	{r3, pc}
 3879              	.L281:
 3880              		.align	3
 3881              	.L280:
 3882 0028 0FA357AF 		.word	-1353211121
 3883 002c F790E13F 		.word	1071747319
 3884 0030 053351C9 		.word	-917425403
 3885 0034 38FA06C0 		.word	-1073284552
 3886 0038 2F861699 		.word	-1726577105
 3887 003c F7BF6C40 		.word	1080868855
 3888 0040 40BD324F 		.word	1328725312
 3889 0044 4952353F 		.word	1060459081
 3890              		.cfi_endproc
 3891              	.LFE3646:
 3893              		.section	.text._Z26enclosure_C_O_Sharph4_funcd,"ax",%progbits
 3894              		.align	1
 3895              		.p2align 2,,3
 3896              		.global	_Z26enclosure_C_O_Sharph4_funcd
 3897              		.syntax unified
 3898              		.thumb
 3899              		.thumb_func
 3901              	_Z26enclosure_C_O_Sharph4_funcd:
 3902              	.LVL348:
 3903              	.LFB3647:
 134:enclosure_funcs.hpp **** CREATE_ENCLOSURE_FUNC(C_O_Sharph4, 0,	1.872583394953941e+02,	2.815261695375913,	0.565229648891522, 
 3904              		.loc 7 134 1 is_stmt 1 view -0
 3905              		.cfi_startproc
 3906              		@ args = 0, pretend = 0, frame = 0
 3907              		@ frame_needed = 0, uses_anonymous_args = 0
 3908              		.loc 7 134 1 view .LVU636
 3909              		.loc 7 134 1 view .LVU637
 3910              		.loc 7 134 1 view .LVU638
 3911 0000 9FED091B 		vldr.64	d1, .L284
 3912 0004 08B5     		push	{r3, lr}
 3913              		.cfi_def_cfa_offset 8
 3914              		.cfi_offset 3, -8
 3915              		.cfi_offset 14, -4
 3916              		.loc 7 134 1 is_stmt 0 view .LVU639
 3917 0006 FFF7FEFF 		bl	pow
ARM GAS  C:\Users\Owner\AppData\Local\Temp\ccv0lMJk.s 			page 76


 3918              	.LVL349:
 3919              		.loc 7 134 1 discriminator 1 view .LVU640
 3920 000a 9FED097B 		vldr.64	d7, .L284+8
 3921 000e 20EE070B 		vmul.f64	d0, d0, d7
 3922 0012 FFF7FEFF 		bl	exp
 3923              	.LVL350:
 3924              		.loc 7 134 1 is_stmt 1 discriminator 2 view .LVU641
 3925 0016 9FED086B 		vldr.64	d6, .L284+16
 3926 001a 9FED097B 		vldr.64	d7, .L284+24
 3927 001e 20EE060B 		vmul.f64	d0, d0, d6
 3928              	.LVL351:
 3929              		.loc 7 134 1 is_stmt 0 view .LVU642
 3930 0022 20EE070B 		vmul.f64	d0, d0, d7
 3931              	.LVL352:
 3932              		.loc 7 134 1 view .LVU643
 3933 0026 08BD     		pop	{r3, pc}
 3934              	.L285:
 3935              		.align	3
 3936              	.L284:
 3937 0028 2EFF167D 		.word	2098659118
 3938 002c 5C16E23F 		.word	1071781468
 3939 0030 88917AEC 		.word	-327511672
 3940 0034 A78506C0 		.word	-1073314393
 3941 0038 737F3051 		.word	1362132851
 3942 003c 44686740 		.word	1080518724
 3943 0040 40BD324F 		.word	1328725312
 3944 0044 4952353F 		.word	1060459081
 3945              		.cfi_endproc
 3946              	.LFE3647:
 3948              		.section	.text._Z19enclosure_D_Of_funcd,"ax",%progbits
 3949              		.align	1
 3950              		.p2align 2,,3
 3951              		.global	_Z19enclosure_D_Of_funcd
 3952              		.syntax unified
 3953              		.thumb
 3954              		.thumb_func
 3956              	_Z19enclosure_D_Of_funcd:
 3957              	.LVL353:
 3958              	.LFB3648:
 135:enclosure_funcs.hpp **** 
 136:enclosure_funcs.hpp **** // D O
 137:enclosure_funcs.hpp **** CREATE_ENCLOSURE_FUNC(D_Of, 0.625000000000000,	2.891619954110377e+03,	1.514717586586715,	0.62655726
 3959              		.loc 7 137 1 is_stmt 1 view -0
 3960              		.cfi_startproc
 3961              		@ args = 0, pretend = 0, frame = 0
 3962              		@ frame_needed = 0, uses_anonymous_args = 0
 3963              		.loc 7 137 1 view .LVU645
 3964              		.loc 7 137 1 view .LVU646
 3965              		.loc 7 137 1 view .LVU647
 3966 0000 9FED091B 		vldr.64	d1, .L288
 3967 0004 08B5     		push	{r3, lr}
 3968              		.cfi_def_cfa_offset 8
 3969              		.cfi_offset 3, -8
 3970              		.cfi_offset 14, -4
 3971              		.loc 7 137 1 is_stmt 0 view .LVU648
 3972 0006 FFF7FEFF 		bl	pow
 3973              	.LVL354:
ARM GAS  C:\Users\Owner\AppData\Local\Temp\ccv0lMJk.s 			page 77


 3974              		.loc 7 137 1 discriminator 1 view .LVU649
 3975 000a 9FED097B 		vldr.64	d7, .L288+8
 3976 000e 20EE070B 		vmul.f64	d0, d0, d7
 3977 0012 FFF7FEFF 		bl	exp
 3978              	.LVL355:
 3979              		.loc 7 137 1 is_stmt 1 discriminator 2 view .LVU650
 3980 0016 9FED086B 		vldr.64	d6, .L288+16
 3981 001a 9FED097B 		vldr.64	d7, .L288+24
 3982 001e 20EE060B 		vmul.f64	d0, d0, d6
 3983              	.LVL356:
 3984              		.loc 7 137 1 is_stmt 0 view .LVU651
 3985 0022 20EE070B 		vmul.f64	d0, d0, d7
 3986              	.LVL357:
 3987              		.loc 7 137 1 view .LVU652
 3988 0026 08BD     		pop	{r3, pc}
 3989              	.L289:
 3990              		.align	3
 3991              	.L288:
 3992 0028 1B88C8CF 		.word	-808941541
 3993 002c C10CE43F 		.word	1071910081
 3994 0030 4B0E1182 		.word	-2112811445
 3995 0034 483CF8BF 		.word	-1074250680
 3996 0038 2E0AA06A 		.word	1788873262
 3997 003c 3D97A640 		.word	1084659517
 3998 0040 2EC92A47 		.word	1193986350
 3999 0044 03AA363F 		.word	1060547075
 4000              		.cfi_endproc
 4001              	.LFE3648:
 4003              		.section	.text._Z20enclosure_D_Oh1_funcd,"ax",%progbits
 4004              		.align	1
 4005              		.p2align 2,,3
 4006              		.global	_Z20enclosure_D_Oh1_funcd
 4007              		.syntax unified
 4008              		.thumb
 4009              		.thumb_func
 4011              	_Z20enclosure_D_Oh1_funcd:
 4012              	.LVL358:
 4013              	.LFB3649:
 138:enclosure_funcs.hpp **** CREATE_ENCLOSURE_FUNC(D_Oh1, 0.125000000000000,	3.027496113934036e+02,	1.419673350348217,	0.7526192
 4014              		.loc 7 138 1 is_stmt 1 view -0
 4015              		.cfi_startproc
 4016              		@ args = 0, pretend = 0, frame = 0
 4017              		@ frame_needed = 0, uses_anonymous_args = 0
 4018              		.loc 7 138 1 view .LVU654
 4019              		.loc 7 138 1 view .LVU655
 4020              		.loc 7 138 1 view .LVU656
 4021 0000 9FED091B 		vldr.64	d1, .L292
 4022 0004 08B5     		push	{r3, lr}
 4023              		.cfi_def_cfa_offset 8
 4024              		.cfi_offset 3, -8
 4025              		.cfi_offset 14, -4
 4026              		.loc 7 138 1 is_stmt 0 view .LVU657
 4027 0006 FFF7FEFF 		bl	pow
 4028              	.LVL359:
 4029              		.loc 7 138 1 discriminator 1 view .LVU658
 4030 000a 9FED097B 		vldr.64	d7, .L292+8
 4031 000e 20EE070B 		vmul.f64	d0, d0, d7
ARM GAS  C:\Users\Owner\AppData\Local\Temp\ccv0lMJk.s 			page 78


 4032 0012 FFF7FEFF 		bl	exp
 4033              	.LVL360:
 4034              		.loc 7 138 1 is_stmt 1 discriminator 2 view .LVU659
 4035 0016 9FED086B 		vldr.64	d6, .L292+16
 4036 001a 9FED097B 		vldr.64	d7, .L292+24
 4037 001e 20EE060B 		vmul.f64	d0, d0, d6
 4038              	.LVL361:
 4039              		.loc 7 138 1 is_stmt 0 view .LVU660
 4040 0022 20EE070B 		vmul.f64	d0, d0, d7
 4041              	.LVL362:
 4042              		.loc 7 138 1 view .LVU661
 4043 0026 08BD     		pop	{r3, pc}
 4044              	.L293:
 4045              		.align	3
 4046              	.L292:
 4047 0028 9B73D70B 		.word	198669211
 4048 002c 7515E83F 		.word	1072174453
 4049 0030 36F92B67 		.word	1730935094
 4050 0034 FBB6F6BF 		.word	-1074350341
 4051 0038 0A368468 		.word	1753495050
 4052 003c FEEB7240 		.word	1081273342
 4053 0040 2EC92A47 		.word	1193986350
 4054 0044 03AA363F 		.word	1060547075
 4055              		.cfi_endproc
 4056              	.LFE3649:
 4058              		.section	.text._Z20enclosure_D_Oh2_funcd,"ax",%progbits
 4059              		.align	1
 4060              		.p2align 2,,3
 4061              		.global	_Z20enclosure_D_Oh2_funcd
 4062              		.syntax unified
 4063              		.thumb
 4064              		.thumb_func
 4066              	_Z20enclosure_D_Oh2_funcd:
 4067              	.LVL363:
 4068              	.LFB3650:
 139:enclosure_funcs.hpp **** CREATE_ENCLOSURE_FUNC(D_Oh2, 0.625000000000000,	1.092242502869075e+02,	1.005071109555101,	1.0507157
 4069              		.loc 7 139 1 is_stmt 1 view -0
 4070              		.cfi_startproc
 4071              		@ args = 0, pretend = 0, frame = 0
 4072              		@ frame_needed = 0, uses_anonymous_args = 0
 4073              		.loc 7 139 1 view .LVU663
 4074              		.loc 7 139 1 view .LVU664
 4075              		.loc 7 139 1 view .LVU665
 4076 0000 9FED091B 		vldr.64	d1, .L296
 4077 0004 08B5     		push	{r3, lr}
 4078              		.cfi_def_cfa_offset 8
 4079              		.cfi_offset 3, -8
 4080              		.cfi_offset 14, -4
 4081              		.loc 7 139 1 is_stmt 0 view .LVU666
 4082 0006 FFF7FEFF 		bl	pow
 4083              	.LVL364:
 4084              		.loc 7 139 1 discriminator 1 view .LVU667
 4085 000a 9FED097B 		vldr.64	d7, .L296+8
 4086 000e 20EE070B 		vmul.f64	d0, d0, d7
 4087 0012 FFF7FEFF 		bl	exp
 4088              	.LVL365:
 4089              		.loc 7 139 1 is_stmt 1 discriminator 2 view .LVU668
ARM GAS  C:\Users\Owner\AppData\Local\Temp\ccv0lMJk.s 			page 79


 4090 0016 9FED086B 		vldr.64	d6, .L296+16
 4091 001a 9FED097B 		vldr.64	d7, .L296+24
 4092 001e 20EE060B 		vmul.f64	d0, d0, d6
 4093              	.LVL366:
 4094              		.loc 7 139 1 is_stmt 0 view .LVU669
 4095 0022 20EE070B 		vmul.f64	d0, d0, d7
 4096              	.LVL367:
 4097              		.loc 7 139 1 view .LVU670
 4098 0026 08BD     		pop	{r3, pc}
 4099              	.L297:
 4100              		.align	3
 4101              	.L296:
 4102 0028 E9569F51 		.word	1369396969
 4103 002c BBCFF03F 		.word	1072746427
 4104 0030 F4189B71 		.word	1905989876
 4105 0034 C514F0BF 		.word	-1074785083
 4106 0038 BA18E01D 		.word	501225658
 4107 003c 5A4E5B40 		.word	1079725658
 4108 0040 2EC92A47 		.word	1193986350
 4109 0044 03AA363F 		.word	1060547075
 4110              		.cfi_endproc
 4111              	.LFE3650:
 4113              		.section	.text._Z20enclosure_D_Oh3_funcd,"ax",%progbits
 4114              		.align	1
 4115              		.p2align 2,,3
 4116              		.global	_Z20enclosure_D_Oh3_funcd
 4117              		.syntax unified
 4118              		.thumb
 4119              		.thumb_func
 4121              	_Z20enclosure_D_Oh3_funcd:
 4122              	.LVL368:
 4123              	.LFB3651:
 140:enclosure_funcs.hpp **** CREATE_ENCLOSURE_FUNC(D_Oh3, 0.250000000000000,	4.066976182121539e+02,	2.478643400292941,	0.5933494
 4124              		.loc 7 140 1 is_stmt 1 view -0
 4125              		.cfi_startproc
 4126              		@ args = 0, pretend = 0, frame = 0
 4127              		@ frame_needed = 0, uses_anonymous_args = 0
 4128              		.loc 7 140 1 view .LVU672
 4129              		.loc 7 140 1 view .LVU673
 4130              		.loc 7 140 1 view .LVU674
 4131 0000 9FED091B 		vldr.64	d1, .L300
 4132 0004 08B5     		push	{r3, lr}
 4133              		.cfi_def_cfa_offset 8
 4134              		.cfi_offset 3, -8
 4135              		.cfi_offset 14, -4
 4136              		.loc 7 140 1 is_stmt 0 view .LVU675
 4137 0006 FFF7FEFF 		bl	pow
 4138              	.LVL369:
 4139              		.loc 7 140 1 discriminator 1 view .LVU676
 4140 000a 9FED097B 		vldr.64	d7, .L300+8
 4141 000e 20EE070B 		vmul.f64	d0, d0, d7
 4142 0012 FFF7FEFF 		bl	exp
 4143              	.LVL370:
 4144              		.loc 7 140 1 is_stmt 1 discriminator 2 view .LVU677
 4145 0016 9FED086B 		vldr.64	d6, .L300+16
 4146 001a 9FED097B 		vldr.64	d7, .L300+24
 4147 001e 20EE060B 		vmul.f64	d0, d0, d6
ARM GAS  C:\Users\Owner\AppData\Local\Temp\ccv0lMJk.s 			page 80


 4148              	.LVL371:
 4149              		.loc 7 140 1 is_stmt 0 view .LVU678
 4150 0022 20EE070B 		vmul.f64	d0, d0, d7
 4151              	.LVL372:
 4152              		.loc 7 140 1 view .LVU679
 4153 0026 08BD     		pop	{r3, pc}
 4154              	.L301:
 4155              		.align	3
 4156              	.L300:
 4157 0028 43A862EF 		.word	-278747069
 4158 002c B7FCE23F 		.word	1071840439
 4159 0030 A6A2B5FD 		.word	-38427994
 4160 0034 42D403C0 		.word	-1073490878
 4161 0038 B8E4B671 		.word	1907811512
 4162 003c 296B7940 		.word	1081699113
 4163 0040 2EC92A47 		.word	1193986350
 4164 0044 03AA363F 		.word	1060547075
 4165              		.cfi_endproc
 4166              	.LFE3651:
 4168              		.section	.text._Z20enclosure_D_Oh4_funcd,"ax",%progbits
 4169              		.align	1
 4170              		.p2align 2,,3
 4171              		.global	_Z20enclosure_D_Oh4_funcd
 4172              		.syntax unified
 4173              		.thumb
 4174              		.thumb_func
 4176              	_Z20enclosure_D_Oh4_funcd:
 4177              	.LVL373:
 4178              	.LFB3652:
 141:enclosure_funcs.hpp **** CREATE_ENCLOSURE_FUNC(D_Oh4, 0.250000000000000,	1.573608949588520e+02,	2.012064455314404,	0.7241179
 4179              		.loc 7 141 1 is_stmt 1 view -0
 4180              		.cfi_startproc
 4181              		@ args = 0, pretend = 0, frame = 0
 4182              		@ frame_needed = 0, uses_anonymous_args = 0
 4183              		.loc 7 141 1 view .LVU681
 4184              		.loc 7 141 1 view .LVU682
 4185              		.loc 7 141 1 view .LVU683
 4186 0000 9FED091B 		vldr.64	d1, .L304
 4187 0004 08B5     		push	{r3, lr}
 4188              		.cfi_def_cfa_offset 8
 4189              		.cfi_offset 3, -8
 4190              		.cfi_offset 14, -4
 4191              		.loc 7 141 1 is_stmt 0 view .LVU684
 4192 0006 FFF7FEFF 		bl	pow
 4193              	.LVL374:
 4194              		.loc 7 141 1 discriminator 1 view .LVU685
 4195 000a 9FED097B 		vldr.64	d7, .L304+8
 4196 000e 20EE070B 		vmul.f64	d0, d0, d7
 4197 0012 FFF7FEFF 		bl	exp
 4198              	.LVL375:
 4199              		.loc 7 141 1 is_stmt 1 discriminator 2 view .LVU686
 4200 0016 9FED086B 		vldr.64	d6, .L304+16
 4201 001a 9FED097B 		vldr.64	d7, .L304+24
 4202 001e 20EE060B 		vmul.f64	d0, d0, d6
 4203              	.LVL376:
 4204              		.loc 7 141 1 is_stmt 0 view .LVU687
 4205 0022 20EE070B 		vmul.f64	d0, d0, d7
ARM GAS  C:\Users\Owner\AppData\Local\Temp\ccv0lMJk.s 			page 81


 4206              	.LVL377:
 4207              		.loc 7 141 1 view .LVU688
 4208 0026 08BD     		pop	{r3, pc}
 4209              	.L305:
 4210              		.align	3
 4211              	.L304:
 4212 0028 9AFC0574 		.word	1946549402
 4213 002c F92BE73F 		.word	1072114681
 4214 0030 C527C83F 		.word	1070081989
 4215 0034 B51800C0 		.word	-1073735499
 4216 0038 F0B19573 		.word	1939190256
 4217 003c 8CAB6340 		.word	1080273804
 4218 0040 2EC92A47 		.word	1193986350
 4219 0044 03AA363F 		.word	1060547075
 4220              		.cfi_endproc
 4221              	.LFE3652:
 4223              		.section	.text._Z25enclosure_D_O_Sharpf_funcd,"ax",%progbits
 4224              		.align	1
 4225              		.p2align 2,,3
 4226              		.global	_Z25enclosure_D_O_Sharpf_funcd
 4227              		.syntax unified
 4228              		.thumb
 4229              		.thumb_func
 4231              	_Z25enclosure_D_O_Sharpf_funcd:
 4232              	.LVL378:
 4233              	.LFB3653:
 142:enclosure_funcs.hpp **** 
 143:enclosure_funcs.hpp **** // D# O
 144:enclosure_funcs.hpp **** CREATE_ENCLOSURE_FUNC(D_O_Sharpf, 0.500000000000000,	1.164924152222682e+03,	0.745100599810165,	0.76
 4234              		.loc 7 144 1 is_stmt 1 view -0
 4235              		.cfi_startproc
 4236              		@ args = 0, pretend = 0, frame = 0
 4237              		@ frame_needed = 0, uses_anonymous_args = 0
 4238              		.loc 7 144 1 view .LVU690
 4239              		.loc 7 144 1 view .LVU691
 4240              		.loc 7 144 1 view .LVU692
 4241 0000 9FED091B 		vldr.64	d1, .L308
 4242 0004 08B5     		push	{r3, lr}
 4243              		.cfi_def_cfa_offset 8
 4244              		.cfi_offset 3, -8
 4245              		.cfi_offset 14, -4
 4246              		.loc 7 144 1 is_stmt 0 view .LVU693
 4247 0006 FFF7FEFF 		bl	pow
 4248              	.LVL379:
 4249              		.loc 7 144 1 discriminator 1 view .LVU694
 4250 000a 9FED097B 		vldr.64	d7, .L308+8
 4251 000e 20EE070B 		vmul.f64	d0, d0, d7
 4252 0012 FFF7FEFF 		bl	exp
 4253              	.LVL380:
 4254              		.loc 7 144 1 is_stmt 1 discriminator 2 view .LVU695
 4255 0016 9FED086B 		vldr.64	d6, .L308+16
 4256 001a 9FED097B 		vldr.64	d7, .L308+24
 4257 001e 20EE060B 		vmul.f64	d0, d0, d6
 4258              	.LVL381:
 4259              		.loc 7 144 1 is_stmt 0 view .LVU696
 4260 0022 20EE070B 		vmul.f64	d0, d0, d7
 4261              	.LVL382:
ARM GAS  C:\Users\Owner\AppData\Local\Temp\ccv0lMJk.s 			page 82


 4262              		.loc 7 144 1 view .LVU697
 4263 0026 08BD     		pop	{r3, pc}
 4264              	.L309:
 4265              		.align	3
 4266              	.L308:
 4267 0028 A622351E 		.word	506798758
 4268 002c 4086E83F 		.word	1072203328
 4269 0030 C0448D36 		.word	915227840
 4270 0034 DDD7E7BF 		.word	-1075324963
 4271 0038 C8D3F554 		.word	1425396680
 4272 003c B2339240 		.word	1083323314
 4273 0040 2D52489F 		.word	-1622650323
 4274 0044 FD204C3F 		.word	1061953789
 4275              		.cfi_endproc
 4276              	.LFE3653:
 4278              		.section	.text._Z26enclosure_D_O_Sharph1_funcd,"ax",%progbits
 4279              		.align	1
 4280              		.p2align 2,,3
 4281              		.global	_Z26enclosure_D_O_Sharph1_funcd
 4282              		.syntax unified
 4283              		.thumb
 4284              		.thumb_func
 4286              	_Z26enclosure_D_O_Sharph1_funcd:
 4287              	.LVL383:
 4288              	.LFB3654:
 145:enclosure_funcs.hpp **** CREATE_ENCLOSURE_FUNC(D_O_Sharph1, 0.500000000000000,	5.079576892543811e+02,	0.603070169690200,	0.8
 4289              		.loc 7 145 1 is_stmt 1 view -0
 4290              		.cfi_startproc
 4291              		@ args = 0, pretend = 0, frame = 0
 4292              		@ frame_needed = 0, uses_anonymous_args = 0
 4293              		.loc 7 145 1 view .LVU699
 4294              		.loc 7 145 1 view .LVU700
 4295              		.loc 7 145 1 view .LVU701
 4296 0000 9FED091B 		vldr.64	d1, .L312
 4297 0004 08B5     		push	{r3, lr}
 4298              		.cfi_def_cfa_offset 8
 4299              		.cfi_offset 3, -8
 4300              		.cfi_offset 14, -4
 4301              		.loc 7 145 1 is_stmt 0 view .LVU702
 4302 0006 FFF7FEFF 		bl	pow
 4303              	.LVL384:
 4304              		.loc 7 145 1 discriminator 1 view .LVU703
 4305 000a 9FED097B 		vldr.64	d7, .L312+8
 4306 000e 20EE070B 		vmul.f64	d0, d0, d7
 4307 0012 FFF7FEFF 		bl	exp
 4308              	.LVL385:
 4309              		.loc 7 145 1 is_stmt 1 discriminator 2 view .LVU704
 4310 0016 9FED086B 		vldr.64	d6, .L312+16
 4311 001a 9FED097B 		vldr.64	d7, .L312+24
 4312 001e 20EE060B 		vmul.f64	d0, d0, d6
 4313              	.LVL386:
 4314              		.loc 7 145 1 is_stmt 0 view .LVU705
 4315 0022 20EE070B 		vmul.f64	d0, d0, d7
 4316              	.LVL387:
 4317              		.loc 7 145 1 view .LVU706
 4318 0026 08BD     		pop	{r3, pc}
 4319              	.L313:
ARM GAS  C:\Users\Owner\AppData\Local\Temp\ccv0lMJk.s 			page 83


 4320              		.align	3
 4321              	.L312:
 4322 0028 5197701F 		.word	527472465
 4323 002c D1FDEB3F 		.word	1072430545
 4324 0030 0D6700D0 		.word	-805279987
 4325 0034 594CE3BF 		.word	-1075622823
 4326 0038 C2B4F7B1 		.word	-1309166398
 4327 003c 52BF7F40 		.word	1082113874
 4328 0040 2D52489F 		.word	-1622650323
 4329 0044 FD204C3F 		.word	1061953789
 4330              		.cfi_endproc
 4331              	.LFE3654:
 4333              		.section	.text._Z26enclosure_D_O_Sharph2_funcd,"ax",%progbits
 4334              		.align	1
 4335              		.p2align 2,,3
 4336              		.global	_Z26enclosure_D_O_Sharph2_funcd
 4337              		.syntax unified
 4338              		.thumb
 4339              		.thumb_func
 4341              	_Z26enclosure_D_O_Sharph2_funcd:
 4342              	.LVL388:
 4343              	.LFB3655:
 146:enclosure_funcs.hpp **** CREATE_ENCLOSURE_FUNC(D_O_Sharph2, 0.625000000000000,	9.593203106806819e+02,	2.270207247350236,	0.5
 4344              		.loc 7 146 1 is_stmt 1 view -0
 4345              		.cfi_startproc
 4346              		@ args = 0, pretend = 0, frame = 0
 4347              		@ frame_needed = 0, uses_anonymous_args = 0
 4348              		.loc 7 146 1 view .LVU708
 4349              		.loc 7 146 1 view .LVU709
 4350              		.loc 7 146 1 view .LVU710
 4351 0000 9FED091B 		vldr.64	d1, .L316
 4352 0004 08B5     		push	{r3, lr}
 4353              		.cfi_def_cfa_offset 8
 4354              		.cfi_offset 3, -8
 4355              		.cfi_offset 14, -4
 4356              		.loc 7 146 1 is_stmt 0 view .LVU711
 4357 0006 FFF7FEFF 		bl	pow
 4358              	.LVL389:
 4359              		.loc 7 146 1 discriminator 1 view .LVU712
 4360 000a 9FED097B 		vldr.64	d7, .L316+8
 4361 000e 20EE070B 		vmul.f64	d0, d0, d7
 4362 0012 FFF7FEFF 		bl	exp
 4363              	.LVL390:
 4364              		.loc 7 146 1 is_stmt 1 discriminator 2 view .LVU713
 4365 0016 9FED086B 		vldr.64	d6, .L316+16
 4366 001a 9FED097B 		vldr.64	d7, .L316+24
 4367 001e 20EE060B 		vmul.f64	d0, d0, d6
 4368              	.LVL391:
 4369              		.loc 7 146 1 is_stmt 0 view .LVU714
 4370 0022 20EE070B 		vmul.f64	d0, d0, d7
 4371              	.LVL392:
 4372              		.loc 7 146 1 view .LVU715
 4373 0026 08BD     		pop	{r3, pc}
 4374              	.L317:
 4375              		.align	3
 4376              	.L316:
 4377 0028 CF3C0BBC 		.word	-1140114225
ARM GAS  C:\Users\Owner\AppData\Local\Temp\ccv0lMJk.s 			page 84


 4378 002c AD80E13F 		.word	1071743149
 4379 0030 7117D46A 		.word	1792284529
 4380 0034 622902C0 		.word	-1073600158
 4381 0038 B5D00BFF 		.word	-16002891
 4382 003c 8FFA8D40 		.word	1083046543
 4383 0040 2D52489F 		.word	-1622650323
 4384 0044 FD204C3F 		.word	1061953789
 4385              		.cfi_endproc
 4386              	.LFE3655:
 4388              		.section	.text._Z26enclosure_D_O_Sharph3_funcd,"ax",%progbits
 4389              		.align	1
 4390              		.p2align 2,,3
 4391              		.global	_Z26enclosure_D_O_Sharph3_funcd
 4392              		.syntax unified
 4393              		.thumb
 4394              		.thumb_func
 4396              	_Z26enclosure_D_O_Sharph3_funcd:
 4397              	.LVL393:
 4398              	.LFB3656:
 147:enclosure_funcs.hpp **** CREATE_ENCLOSURE_FUNC(D_O_Sharph3, 0.625000000000000,	3.381744375792984e+02,	1.734442668144415,	0.6
 4399              		.loc 7 147 1 is_stmt 1 view -0
 4400              		.cfi_startproc
 4401              		@ args = 0, pretend = 0, frame = 0
 4402              		@ frame_needed = 0, uses_anonymous_args = 0
 4403              		.loc 7 147 1 view .LVU717
 4404              		.loc 7 147 1 view .LVU718
 4405              		.loc 7 147 1 view .LVU719
 4406 0000 9FED091B 		vldr.64	d1, .L320
 4407 0004 08B5     		push	{r3, lr}
 4408              		.cfi_def_cfa_offset 8
 4409              		.cfi_offset 3, -8
 4410              		.cfi_offset 14, -4
 4411              		.loc 7 147 1 is_stmt 0 view .LVU720
 4412 0006 FFF7FEFF 		bl	pow
 4413              	.LVL394:
 4414              		.loc 7 147 1 discriminator 1 view .LVU721
 4415 000a 9FED097B 		vldr.64	d7, .L320+8
 4416 000e 20EE070B 		vmul.f64	d0, d0, d7
 4417 0012 FFF7FEFF 		bl	exp
 4418              	.LVL395:
 4419              		.loc 7 147 1 is_stmt 1 discriminator 2 view .LVU722
 4420 0016 9FED086B 		vldr.64	d6, .L320+16
 4421 001a 9FED097B 		vldr.64	d7, .L320+24
 4422 001e 20EE060B 		vmul.f64	d0, d0, d6
 4423              	.LVL396:
 4424              		.loc 7 147 1 is_stmt 0 view .LVU723
 4425 0022 20EE070B 		vmul.f64	d0, d0, d7
 4426              	.LVL397:
 4427              		.loc 7 147 1 view .LVU724
 4428 0026 08BD     		pop	{r3, pc}
 4429              	.L321:
 4430              		.align	3
 4431              	.L320:
 4432 0028 F92364C3 		.word	-1016847367
 4433 002c F0A0E53F 		.word	1072013552
 4434 0030 D47987F4 		.word	-192448044
 4435 0034 46C0FBBF 		.word	-1074020282
ARM GAS  C:\Users\Owner\AppData\Local\Temp\ccv0lMJk.s 			page 85


 4436 0038 7B240F7F 		.word	2131698811
 4437 003c CA227540 		.word	1081418442
 4438 0040 2D52489F 		.word	-1622650323
 4439 0044 FD204C3F 		.word	1061953789
 4440              		.cfi_endproc
 4441              	.LFE3656:
 4443              		.section	.text._Z26enclosure_D_O_Sharph4_funcd,"ax",%progbits
 4444              		.align	1
 4445              		.p2align 2,,3
 4446              		.global	_Z26enclosure_D_O_Sharph4_funcd
 4447              		.syntax unified
 4448              		.thumb
 4449              		.thumb_func
 4451              	_Z26enclosure_D_O_Sharph4_funcd:
 4452              	.LVL398:
 4453              	.LFB3657:
 148:enclosure_funcs.hpp **** CREATE_ENCLOSURE_FUNC(D_O_Sharph4, 0.625000000000000,	3.977443785421431e+02,	2.449271978756069,	0.4
 4454              		.loc 7 148 1 is_stmt 1 view -0
 4455              		.cfi_startproc
 4456              		@ args = 0, pretend = 0, frame = 0
 4457              		@ frame_needed = 0, uses_anonymous_args = 0
 4458              		.loc 7 148 1 view .LVU726
 4459              		.loc 7 148 1 view .LVU727
 4460              		.loc 7 148 1 view .LVU728
 4461 0000 9FED091B 		vldr.64	d1, .L324
 4462 0004 08B5     		push	{r3, lr}
 4463              		.cfi_def_cfa_offset 8
 4464              		.cfi_offset 3, -8
 4465              		.cfi_offset 14, -4
 4466              		.loc 7 148 1 is_stmt 0 view .LVU729
 4467 0006 FFF7FEFF 		bl	pow
 4468              	.LVL399:
 4469              		.loc 7 148 1 discriminator 1 view .LVU730
 4470 000a 9FED097B 		vldr.64	d7, .L324+8
 4471 000e 20EE070B 		vmul.f64	d0, d0, d7
 4472 0012 FFF7FEFF 		bl	exp
 4473              	.LVL400:
 4474              		.loc 7 148 1 is_stmt 1 discriminator 2 view .LVU731
 4475 0016 9FED086B 		vldr.64	d6, .L324+16
 4476 001a 9FED097B 		vldr.64	d7, .L324+24
 4477 001e 20EE060B 		vmul.f64	d0, d0, d6
 4478              	.LVL401:
 4479              		.loc 7 148 1 is_stmt 0 view .LVU732
 4480 0022 20EE070B 		vmul.f64	d0, d0, d7
 4481              	.LVL402:
 4482              		.loc 7 148 1 view .LVU733
 4483 0026 08BD     		pop	{r3, pc}
 4484              	.L325:
 4485              		.align	3
 4486              	.L324:
 4487 0028 D52E865A 		.word	1518743253
 4488 002c FC2ADD3F 		.word	1071459068
 4489 0030 D7213EE8 		.word	-398581289
 4490 0034 1B9803C0 		.word	-1073506277
 4491 0038 956579F9 		.word	-109484651
 4492 003c E8DB7840 		.word	1081662440
 4493 0040 2D52489F 		.word	-1622650323
ARM GAS  C:\Users\Owner\AppData\Local\Temp\ccv0lMJk.s 			page 86


 4494 0044 FD204C3F 		.word	1061953789
 4495              		.cfi_endproc
 4496              	.LFE3657:
 4498              		.section	.text._Z19enclosure_E_Of_funcd,"ax",%progbits
 4499              		.align	1
 4500              		.p2align 2,,3
 4501              		.global	_Z19enclosure_E_Of_funcd
 4502              		.syntax unified
 4503              		.thumb
 4504              		.thumb_func
 4506              	_Z19enclosure_E_Of_funcd:
 4507              	.LVL403:
 4508              	.LFB3658:
 149:enclosure_funcs.hpp **** 
 150:enclosure_funcs.hpp **** // E O
 151:enclosure_funcs.hpp **** CREATE_ENCLOSURE_FUNC(E_Of, 0.125000000000000,	1.987062669248607e+03,	1.219959887788962,	0.67079980
 4509              		.loc 7 151 1 is_stmt 1 view -0
 4510              		.cfi_startproc
 4511              		@ args = 0, pretend = 0, frame = 0
 4512              		@ frame_needed = 0, uses_anonymous_args = 0
 4513              		.loc 7 151 1 view .LVU735
 4514              		.loc 7 151 1 view .LVU736
 4515              		.loc 7 151 1 view .LVU737
 4516 0000 9FED091B 		vldr.64	d1, .L328
 4517 0004 08B5     		push	{r3, lr}
 4518              		.cfi_def_cfa_offset 8
 4519              		.cfi_offset 3, -8
 4520              		.cfi_offset 14, -4
 4521              		.loc 7 151 1 is_stmt 0 view .LVU738
 4522 0006 FFF7FEFF 		bl	pow
 4523              	.LVL404:
 4524              		.loc 7 151 1 discriminator 1 view .LVU739
 4525 000a 9FED097B 		vldr.64	d7, .L328+8
 4526 000e 20EE070B 		vmul.f64	d0, d0, d7
 4527 0012 FFF7FEFF 		bl	exp
 4528              	.LVL405:
 4529              		.loc 7 151 1 is_stmt 1 discriminator 2 view .LVU740
 4530 0016 9FED086B 		vldr.64	d6, .L328+16
 4531 001a 9FED097B 		vldr.64	d7, .L328+24
 4532 001e 20EE060B 		vmul.f64	d0, d0, d6
 4533              	.LVL406:
 4534              		.loc 7 151 1 is_stmt 0 view .LVU741
 4535 0022 20EE070B 		vmul.f64	d0, d0, d7
 4536              	.LVL407:
 4537              		.loc 7 151 1 view .LVU742
 4538 0026 08BD     		pop	{r3, pc}
 4539              	.L329:
 4540              		.align	3
 4541              	.L328:
 4542 0028 FC800A25 		.word	621445372
 4543 002c 3177E53F 		.word	1072002865
 4544 0030 49C4C7A8 		.word	-1463303095
 4545 0034 F484F3BF 		.word	-1074559756
 4546 0038 EE145E2C 		.word	744363246
 4547 003c 400C9F40 		.word	1084165184
 4548 0040 8F5DEBB8 		.word	-1192534641
 4549 0044 9C7D403F 		.word	1061191068
ARM GAS  C:\Users\Owner\AppData\Local\Temp\ccv0lMJk.s 			page 87


 4550              		.cfi_endproc
 4551              	.LFE3658:
 4553              		.section	.text._Z20enclosure_E_Oh1_funcd,"ax",%progbits
 4554              		.align	1
 4555              		.p2align 2,,3
 4556              		.global	_Z20enclosure_E_Oh1_funcd
 4557              		.syntax unified
 4558              		.thumb
 4559              		.thumb_func
 4561              	_Z20enclosure_E_Oh1_funcd:
 4562              	.LVL408:
 4563              	.LFB3659:
 152:enclosure_funcs.hpp **** CREATE_ENCLOSURE_FUNC(E_Oh1, 0.125000000000000,	5.881328925685059e+02,	2.381633219479307,	0.3757936
 4564              		.loc 7 152 1 is_stmt 1 view -0
 4565              		.cfi_startproc
 4566              		@ args = 0, pretend = 0, frame = 0
 4567              		@ frame_needed = 0, uses_anonymous_args = 0
 4568              		.loc 7 152 1 view .LVU744
 4569              		.loc 7 152 1 view .LVU745
 4570              		.loc 7 152 1 view .LVU746
 4571 0000 9FED091B 		vldr.64	d1, .L332
 4572 0004 08B5     		push	{r3, lr}
 4573              		.cfi_def_cfa_offset 8
 4574              		.cfi_offset 3, -8
 4575              		.cfi_offset 14, -4
 4576              		.loc 7 152 1 is_stmt 0 view .LVU747
 4577 0006 FFF7FEFF 		bl	pow
 4578              	.LVL409:
 4579              		.loc 7 152 1 discriminator 1 view .LVU748
 4580 000a 9FED097B 		vldr.64	d7, .L332+8
 4581 000e 20EE070B 		vmul.f64	d0, d0, d7
 4582 0012 FFF7FEFF 		bl	exp
 4583              	.LVL410:
 4584              		.loc 7 152 1 is_stmt 1 discriminator 2 view .LVU749
 4585 0016 9FED086B 		vldr.64	d6, .L332+16
 4586 001a 9FED097B 		vldr.64	d7, .L332+24
 4587 001e 20EE060B 		vmul.f64	d0, d0, d6
 4588              	.LVL411:
 4589              		.loc 7 152 1 is_stmt 0 view .LVU750
 4590 0022 20EE070B 		vmul.f64	d0, d0, d7
 4591              	.LVL412:
 4592              		.loc 7 152 1 view .LVU751
 4593 0026 08BD     		pop	{r3, pc}
 4594              	.L333:
 4595              		.align	3
 4596              	.L332:
 4597 0028 052F3CF9 		.word	-113496315
 4598 002c 000DD83F 		.word	1071123712
 4599 0030 B5D8A5B7 		.word	-1213867851
 4600 0034 950D03C0 		.word	-1073541739
 4601 0038 EA9CFA29 		.word	704290026
 4602 003c 10618240 		.word	1082286352
 4603 0040 8F5DEBB8 		.word	-1192534641
 4604 0044 9C7D403F 		.word	1061191068
 4605              		.cfi_endproc
 4606              	.LFE3659:
 4608              		.section	.text._Z20enclosure_E_Oh2_funcd,"ax",%progbits
ARM GAS  C:\Users\Owner\AppData\Local\Temp\ccv0lMJk.s 			page 88


 4609              		.align	1
 4610              		.p2align 2,,3
 4611              		.global	_Z20enclosure_E_Oh2_funcd
 4612              		.syntax unified
 4613              		.thumb
 4614              		.thumb_func
 4616              	_Z20enclosure_E_Oh2_funcd:
 4617              	.LVL413:
 4618              	.LFB3660:
 153:enclosure_funcs.hpp **** CREATE_ENCLOSURE_FUNC(E_Oh2, 0.125000000000000,	2.813494319226569e+02,	2.889725000465424,	0.4584636
 4619              		.loc 7 153 1 is_stmt 1 view -0
 4620              		.cfi_startproc
 4621              		@ args = 0, pretend = 0, frame = 0
 4622              		@ frame_needed = 0, uses_anonymous_args = 0
 4623              		.loc 7 153 1 view .LVU753
 4624              		.loc 7 153 1 view .LVU754
 4625              		.loc 7 153 1 view .LVU755
 4626 0000 9FED091B 		vldr.64	d1, .L336
 4627 0004 08B5     		push	{r3, lr}
 4628              		.cfi_def_cfa_offset 8
 4629              		.cfi_offset 3, -8
 4630              		.cfi_offset 14, -4
 4631              		.loc 7 153 1 is_stmt 0 view .LVU756
 4632 0006 FFF7FEFF 		bl	pow
 4633              	.LVL414:
 4634              		.loc 7 153 1 discriminator 1 view .LVU757
 4635 000a 9FED097B 		vldr.64	d7, .L336+8
 4636 000e 20EE070B 		vmul.f64	d0, d0, d7
 4637 0012 FFF7FEFF 		bl	exp
 4638              	.LVL415:
 4639              		.loc 7 153 1 is_stmt 1 discriminator 2 view .LVU758
 4640 0016 9FED086B 		vldr.64	d6, .L336+16
 4641 001a 9FED097B 		vldr.64	d7, .L336+24
 4642 001e 20EE060B 		vmul.f64	d0, d0, d6
 4643              	.LVL416:
 4644              		.loc 7 153 1 is_stmt 0 view .LVU759
 4645 0022 20EE070B 		vmul.f64	d0, d0, d7
 4646              	.LVL417:
 4647              		.loc 7 153 1 view .LVU760
 4648 0026 08BD     		pop	{r3, pc}
 4649              	.L337:
 4650              		.align	3
 4651              	.L336:
 4652 0028 F0BF2BF4 		.word	-198459408
 4653 002c 7757DD3F 		.word	1071470455
 4654 0030 ED751B24 		.word	605779437
 4655 0034 281E07C0 		.word	-1073275352
 4656 0038 D67FED45 		.word	1173192662
 4657 003c 97957140 		.word	1081185687
 4658 0040 8F5DEBB8 		.word	-1192534641
 4659 0044 9C7D403F 		.word	1061191068
 4660              		.cfi_endproc
 4661              	.LFE3660:
 4663              		.section	.text._Z20enclosure_E_Oh3_funcd,"ax",%progbits
 4664              		.align	1
 4665              		.p2align 2,,3
 4666              		.global	_Z20enclosure_E_Oh3_funcd
ARM GAS  C:\Users\Owner\AppData\Local\Temp\ccv0lMJk.s 			page 89


 4667              		.syntax unified
 4668              		.thumb
 4669              		.thumb_func
 4671              	_Z20enclosure_E_Oh3_funcd:
 4672              	.LVL418:
 4673              	.LFB3661:
 154:enclosure_funcs.hpp **** CREATE_ENCLOSURE_FUNC(E_Oh3, 0.125000000000000,	2.051659973506518e+02,	1.762799804349806,	0.7791695
 4674              		.loc 7 154 1 is_stmt 1 view -0
 4675              		.cfi_startproc
 4676              		@ args = 0, pretend = 0, frame = 0
 4677              		@ frame_needed = 0, uses_anonymous_args = 0
 4678              		.loc 7 154 1 view .LVU762
 4679              		.loc 7 154 1 view .LVU763
 4680              		.loc 7 154 1 view .LVU764
 4681 0000 9FED091B 		vldr.64	d1, .L340
 4682 0004 08B5     		push	{r3, lr}
 4683              		.cfi_def_cfa_offset 8
 4684              		.cfi_offset 3, -8
 4685              		.cfi_offset 14, -4
 4686              		.loc 7 154 1 is_stmt 0 view .LVU765
 4687 0006 FFF7FEFF 		bl	pow
 4688              	.LVL419:
 4689              		.loc 7 154 1 discriminator 1 view .LVU766
 4690 000a 9FED097B 		vldr.64	d7, .L340+8
 4691 000e 20EE070B 		vmul.f64	d0, d0, d7
 4692 0012 FFF7FEFF 		bl	exp
 4693              	.LVL420:
 4694              		.loc 7 154 1 is_stmt 1 discriminator 2 view .LVU767
 4695 0016 9FED086B 		vldr.64	d6, .L340+16
 4696 001a 9FED097B 		vldr.64	d7, .L340+24
 4697 001e 20EE060B 		vmul.f64	d0, d0, d6
 4698              	.LVL421:
 4699              		.loc 7 154 1 is_stmt 0 view .LVU768
 4700 0022 20EE070B 		vmul.f64	d0, d0, d7
 4701              	.LVL422:
 4702              		.loc 7 154 1 view .LVU769
 4703 0026 08BD     		pop	{r3, pc}
 4704              	.L341:
 4705              		.align	3
 4706              	.L340:
 4707 0028 0364970E 		.word	244802563
 4708 002c F5EEE83F 		.word	1072230133
 4709 0030 EA3D5191 		.word	-1856946710
 4710 0034 6D34FCBF 		.word	-1073990547
 4711 0038 B508ADD9 		.word	-642971467
 4712 003c 4FA56940 		.word	1080665423
 4713 0040 8F5DEBB8 		.word	-1192534641
 4714 0044 9C7D403F 		.word	1061191068
 4715              		.cfi_endproc
 4716              	.LFE3661:
 4718              		.section	.text._Z20enclosure_E_Oh4_funcd,"ax",%progbits
 4719              		.align	1
 4720              		.p2align 2,,3
 4721              		.global	_Z20enclosure_E_Oh4_funcd
 4722              		.syntax unified
 4723              		.thumb
 4724              		.thumb_func
ARM GAS  C:\Users\Owner\AppData\Local\Temp\ccv0lMJk.s 			page 90


 4726              	_Z20enclosure_E_Oh4_funcd:
 4727              	.LVL423:
 4728              	.LFB3662:
 155:enclosure_funcs.hpp **** CREATE_ENCLOSURE_FUNC(E_Oh4, 0.125000000000000,	93.909143601001475,	2.157867734949367,	0.6805994772
 4729              		.loc 7 155 1 is_stmt 1 view -0
 4730              		.cfi_startproc
 4731              		@ args = 0, pretend = 0, frame = 0
 4732              		@ frame_needed = 0, uses_anonymous_args = 0
 4733              		.loc 7 155 1 view .LVU771
 4734              		.loc 7 155 1 view .LVU772
 4735              		.loc 7 155 1 view .LVU773
 4736 0000 9FED091B 		vldr.64	d1, .L344
 4737 0004 08B5     		push	{r3, lr}
 4738              		.cfi_def_cfa_offset 8
 4739              		.cfi_offset 3, -8
 4740              		.cfi_offset 14, -4
 4741              		.loc 7 155 1 is_stmt 0 view .LVU774
 4742 0006 FFF7FEFF 		bl	pow
 4743              	.LVL424:
 4744              		.loc 7 155 1 discriminator 1 view .LVU775
 4745 000a 9FED097B 		vldr.64	d7, .L344+8
 4746 000e 20EE070B 		vmul.f64	d0, d0, d7
 4747 0012 FFF7FEFF 		bl	exp
 4748              	.LVL425:
 4749              		.loc 7 155 1 is_stmt 1 discriminator 2 view .LVU776
 4750 0016 9FED086B 		vldr.64	d6, .L344+16
 4751 001a 9FED097B 		vldr.64	d7, .L344+24
 4752 001e 20EE060B 		vmul.f64	d0, d0, d6
 4753              	.LVL426:
 4754              		.loc 7 155 1 is_stmt 0 view .LVU777
 4755 0022 20EE070B 		vmul.f64	d0, d0, d7
 4756              	.LVL427:
 4757              		.loc 7 155 1 view .LVU778
 4758 0026 08BD     		pop	{r3, pc}
 4759              	.L345:
 4760              		.align	3
 4761              	.L344:
 4762 0028 053D158E 		.word	-1911210747
 4763 002c 78C7E53F 		.word	1072023416
 4764 0030 E99BB528 		.word	682990569
 4765 0034 504301C0 		.word	-1073659056
 4766 0038 D16AA468 		.word	1755605713
 4767 003c 2F7A5740 		.word	1079474735
 4768 0040 8F5DEBB8 		.word	-1192534641
 4769 0044 9C7D403F 		.word	1061191068
 4770              		.cfi_endproc
 4771              	.LFE3662:
 4773              		.section	.text._Z19enclosure_F_Of_funcd,"ax",%progbits
 4774              		.align	1
 4775              		.p2align 2,,3
 4776              		.global	_Z19enclosure_F_Of_funcd
 4777              		.syntax unified
 4778              		.thumb
 4779              		.thumb_func
 4781              	_Z19enclosure_F_Of_funcd:
 4782              	.LVL428:
 4783              	.LFB3663:
ARM GAS  C:\Users\Owner\AppData\Local\Temp\ccv0lMJk.s 			page 91


 156:enclosure_funcs.hpp **** 
 157:enclosure_funcs.hpp **** // F O
 158:enclosure_funcs.hpp **** CREATE_ENCLOSURE_FUNC(F_Of, 0.625000000000000,	1.862898796747463e+03,	1.339125860780326,	0.70172859
 4784              		.loc 7 158 1 is_stmt 1 view -0
 4785              		.cfi_startproc
 4786              		@ args = 0, pretend = 0, frame = 0
 4787              		@ frame_needed = 0, uses_anonymous_args = 0
 4788              		.loc 7 158 1 view .LVU780
 4789              		.loc 7 158 1 view .LVU781
 4790              		.loc 7 158 1 view .LVU782
 4791 0000 9FED091B 		vldr.64	d1, .L348
 4792 0004 08B5     		push	{r3, lr}
 4793              		.cfi_def_cfa_offset 8
 4794              		.cfi_offset 3, -8
 4795              		.cfi_offset 14, -4
 4796              		.loc 7 158 1 is_stmt 0 view .LVU783
 4797 0006 FFF7FEFF 		bl	pow
 4798              	.LVL429:
 4799              		.loc 7 158 1 discriminator 1 view .LVU784
 4800 000a 9FED097B 		vldr.64	d7, .L348+8
 4801 000e 20EE070B 		vmul.f64	d0, d0, d7
 4802 0012 FFF7FEFF 		bl	exp
 4803              	.LVL430:
 4804              		.loc 7 158 1 is_stmt 1 discriminator 2 view .LVU785
 4805 0016 9FED086B 		vldr.64	d6, .L348+16
 4806 001a 9FED097B 		vldr.64	d7, .L348+24
 4807 001e 20EE060B 		vmul.f64	d0, d0, d6
 4808              	.LVL431:
 4809              		.loc 7 158 1 is_stmt 0 view .LVU786
 4810 0022 20EE070B 		vmul.f64	d0, d0, d7
 4811              	.LVL432:
 4812              		.loc 7 158 1 view .LVU787
 4813 0026 08BD     		pop	{r3, pc}
 4814              	.L349:
 4815              		.align	3
 4816              	.L348:
 4817 0028 80176488 		.word	-2006706304
 4818 002c 8F74E63F 		.word	1072067727
 4819 0030 3778143D 		.word	1024751671
 4820 0034 0F6DF5BF 		.word	-1074434801
 4821 0038 6BB02C5E 		.word	1579987051
 4822 003c 981B9D40 		.word	1084038040
 4823 0040 15369986 		.word	-2036779499
 4824 0044 FC96413F 		.word	1061263100
 4825              		.cfi_endproc
 4826              	.LFE3663:
 4828              		.section	.text._Z20enclosure_F_Oh1_funcd,"ax",%progbits
 4829              		.align	1
 4830              		.p2align 2,,3
 4831              		.global	_Z20enclosure_F_Oh1_funcd
 4832              		.syntax unified
 4833              		.thumb
 4834              		.thumb_func
 4836              	_Z20enclosure_F_Oh1_funcd:
 4837              	.LVL433:
 4838              	.LFB3664:
 159:enclosure_funcs.hpp **** CREATE_ENCLOSURE_FUNC(F_Oh1, 0.625000000000000,	2.501450869730436e+02,	2.494667823594014,	0.5288488
ARM GAS  C:\Users\Owner\AppData\Local\Temp\ccv0lMJk.s 			page 92


 4839              		.loc 7 159 1 is_stmt 1 view -0
 4840              		.cfi_startproc
 4841              		@ args = 0, pretend = 0, frame = 0
 4842              		@ frame_needed = 0, uses_anonymous_args = 0
 4843              		.loc 7 159 1 view .LVU789
 4844              		.loc 7 159 1 view .LVU790
 4845              		.loc 7 159 1 view .LVU791
 4846 0000 9FED091B 		vldr.64	d1, .L352
 4847 0004 08B5     		push	{r3, lr}
 4848              		.cfi_def_cfa_offset 8
 4849              		.cfi_offset 3, -8
 4850              		.cfi_offset 14, -4
 4851              		.loc 7 159 1 is_stmt 0 view .LVU792
 4852 0006 FFF7FEFF 		bl	pow
 4853              	.LVL434:
 4854              		.loc 7 159 1 discriminator 1 view .LVU793
 4855 000a 9FED097B 		vldr.64	d7, .L352+8
 4856 000e 20EE070B 		vmul.f64	d0, d0, d7
 4857 0012 FFF7FEFF 		bl	exp
 4858              	.LVL435:
 4859              		.loc 7 159 1 is_stmt 1 discriminator 2 view .LVU794
 4860 0016 9FED086B 		vldr.64	d6, .L352+16
 4861 001a 9FED097B 		vldr.64	d7, .L352+24
 4862 001e 20EE060B 		vmul.f64	d0, d0, d6
 4863              	.LVL436:
 4864              		.loc 7 159 1 is_stmt 0 view .LVU795
 4865 0022 20EE070B 		vmul.f64	d0, d0, d7
 4866              	.LVL437:
 4867              		.loc 7 159 1 view .LVU796
 4868 0026 08BD     		pop	{r3, pc}
 4869              	.L353:
 4870              		.align	3
 4871              	.L352:
 4872 0028 2BD9A26F 		.word	1872943403
 4873 002c 54ECE03F 		.word	1071705172
 4874 0030 20C26567 		.word	1734722080
 4875 0034 14F503C0 		.word	-1073482476
 4876 0038 88896F8D 		.word	-1922070136
 4877 003c A4446F40 		.word	1081033892
 4878 0040 15369986 		.word	-2036779499
 4879 0044 FC96413F 		.word	1061263100
 4880              		.cfi_endproc
 4881              	.LFE3664:
 4883              		.section	.text._Z20enclosure_F_Oh2_funcd,"ax",%progbits
 4884              		.align	1
 4885              		.p2align 2,,3
 4886              		.global	_Z20enclosure_F_Oh2_funcd
 4887              		.syntax unified
 4888              		.thumb
 4889              		.thumb_func
 4891              	_Z20enclosure_F_Oh2_funcd:
 4892              	.LVL438:
 4893              	.LFB3665:
 160:enclosure_funcs.hpp **** CREATE_ENCLOSURE_FUNC(F_Oh2, 0.625000000000000,	1.751739358958314e+02,	1.309125544636537,	0.9037801
 4894              		.loc 7 160 1 is_stmt 1 view -0
 4895              		.cfi_startproc
 4896              		@ args = 0, pretend = 0, frame = 0
ARM GAS  C:\Users\Owner\AppData\Local\Temp\ccv0lMJk.s 			page 93


 4897              		@ frame_needed = 0, uses_anonymous_args = 0
 4898              		.loc 7 160 1 view .LVU798
 4899              		.loc 7 160 1 view .LVU799
 4900              		.loc 7 160 1 view .LVU800
 4901 0000 9FED091B 		vldr.64	d1, .L356
 4902 0004 08B5     		push	{r3, lr}
 4903              		.cfi_def_cfa_offset 8
 4904              		.cfi_offset 3, -8
 4905              		.cfi_offset 14, -4
 4906              		.loc 7 160 1 is_stmt 0 view .LVU801
 4907 0006 FFF7FEFF 		bl	pow
 4908              	.LVL439:
 4909              		.loc 7 160 1 discriminator 1 view .LVU802
 4910 000a 9FED097B 		vldr.64	d7, .L356+8
 4911 000e 20EE070B 		vmul.f64	d0, d0, d7
 4912 0012 FFF7FEFF 		bl	exp
 4913              	.LVL440:
 4914              		.loc 7 160 1 is_stmt 1 discriminator 2 view .LVU803
 4915 0016 9FED086B 		vldr.64	d6, .L356+16
 4916 001a 9FED097B 		vldr.64	d7, .L356+24
 4917 001e 20EE060B 		vmul.f64	d0, d0, d6
 4918              	.LVL441:
 4919              		.loc 7 160 1 is_stmt 0 view .LVU804
 4920 0022 20EE070B 		vmul.f64	d0, d0, d7
 4921              	.LVL442:
 4922              		.loc 7 160 1 view .LVU805
 4923 0026 08BD     		pop	{r3, pc}
 4924              	.L357:
 4925              		.align	3
 4926              	.L356:
 4927 0028 F2467E44 		.word	1149126386
 4928 002c C4EBEC3F 		.word	1072491460
 4929 0030 622789A0 		.word	-1601624222
 4930 0034 2DF2F4BF 		.word	-1074466259
 4931 0038 480603E2 		.word	-503118264
 4932 003c 90E56540 		.word	1080419728
 4933 0040 15369986 		.word	-2036779499
 4934 0044 FC96413F 		.word	1061263100
 4935              		.cfi_endproc
 4936              	.LFE3665:
 4938              		.section	.text._Z20enclosure_F_Oh3_funcd,"ax",%progbits
 4939              		.align	1
 4940              		.p2align 2,,3
 4941              		.global	_Z20enclosure_F_Oh3_funcd
 4942              		.syntax unified
 4943              		.thumb
 4944              		.thumb_func
 4946              	_Z20enclosure_F_Oh3_funcd:
 4947              	.LVL443:
 4948              	.LFB3666:
 161:enclosure_funcs.hpp **** CREATE_ENCLOSURE_FUNC(F_Oh3, 0.625000000000000,	1.511650470596915e+02,	2.193572011338811,	0.6743482
 4949              		.loc 7 161 1 is_stmt 1 view -0
 4950              		.cfi_startproc
 4951              		@ args = 0, pretend = 0, frame = 0
 4952              		@ frame_needed = 0, uses_anonymous_args = 0
 4953              		.loc 7 161 1 view .LVU807
 4954              		.loc 7 161 1 view .LVU808
ARM GAS  C:\Users\Owner\AppData\Local\Temp\ccv0lMJk.s 			page 94


 4955              		.loc 7 161 1 view .LVU809
 4956 0000 9FED091B 		vldr.64	d1, .L360
 4957 0004 08B5     		push	{r3, lr}
 4958              		.cfi_def_cfa_offset 8
 4959              		.cfi_offset 3, -8
 4960              		.cfi_offset 14, -4
 4961              		.loc 7 161 1 is_stmt 0 view .LVU810
 4962 0006 FFF7FEFF 		bl	pow
 4963              	.LVL444:
 4964              		.loc 7 161 1 discriminator 1 view .LVU811
 4965 000a 9FED097B 		vldr.64	d7, .L360+8
 4966 000e 20EE070B 		vmul.f64	d0, d0, d7
 4967 0012 FFF7FEFF 		bl	exp
 4968              	.LVL445:
 4969              		.loc 7 161 1 is_stmt 1 discriminator 2 view .LVU812
 4970 0016 9FED086B 		vldr.64	d6, .L360+16
 4971 001a 9FED097B 		vldr.64	d7, .L360+24
 4972 001e 20EE060B 		vmul.f64	d0, d0, d6
 4973              	.LVL446:
 4974              		.loc 7 161 1 is_stmt 0 view .LVU813
 4975 0022 20EE070B 		vmul.f64	d0, d0, d7
 4976              	.LVL447:
 4977              		.loc 7 161 1 view .LVU814
 4978 0026 08BD     		pop	{r3, pc}
 4979              	.L361:
 4980              		.align	3
 4981              	.L360:
 4982 0028 9640ABD8 		.word	-659865450
 4983 002c 4294E53F 		.word	1072010306
 4984 0030 15F8907B 		.word	2073098261
 4985 0034 6F8C01C0 		.word	-1073640337
 4986 0038 A175C510 		.word	281376161
 4987 003c 48E56240 		.word	1080223048
 4988 0040 15369986 		.word	-2036779499
 4989 0044 FC96413F 		.word	1061263100
 4990              		.cfi_endproc
 4991              	.LFE3666:
 4993              		.section	.text._Z20enclosure_F_Oh4_funcd,"ax",%progbits
 4994              		.align	1
 4995              		.p2align 2,,3
 4996              		.global	_Z20enclosure_F_Oh4_funcd
 4997              		.syntax unified
 4998              		.thumb
 4999              		.thumb_func
 5001              	_Z20enclosure_F_Oh4_funcd:
 5002              	.LVL448:
 5003              	.LFB3667:
 162:enclosure_funcs.hpp **** CREATE_ENCLOSURE_FUNC(F_Oh4, 0.625000000000000,	1.952796283487770e+02,	2.434996381494978,	0.6628677
 5004              		.loc 7 162 1 is_stmt 1 view -0
 5005              		.cfi_startproc
 5006              		@ args = 0, pretend = 0, frame = 0
 5007              		@ frame_needed = 0, uses_anonymous_args = 0
 5008              		.loc 7 162 1 view .LVU816
 5009              		.loc 7 162 1 view .LVU817
 5010              		.loc 7 162 1 view .LVU818
 5011 0000 9FED091B 		vldr.64	d1, .L364
 5012 0004 08B5     		push	{r3, lr}
ARM GAS  C:\Users\Owner\AppData\Local\Temp\ccv0lMJk.s 			page 95


 5013              		.cfi_def_cfa_offset 8
 5014              		.cfi_offset 3, -8
 5015              		.cfi_offset 14, -4
 5016              		.loc 7 162 1 is_stmt 0 view .LVU819
 5017 0006 FFF7FEFF 		bl	pow
 5018              	.LVL449:
 5019              		.loc 7 162 1 discriminator 1 view .LVU820
 5020 000a 9FED097B 		vldr.64	d7, .L364+8
 5021 000e 20EE070B 		vmul.f64	d0, d0, d7
 5022 0012 FFF7FEFF 		bl	exp
 5023              	.LVL450:
 5024              		.loc 7 162 1 is_stmt 1 discriminator 2 view .LVU821
 5025 0016 9FED086B 		vldr.64	d6, .L364+16
 5026 001a 9FED097B 		vldr.64	d7, .L364+24
 5027 001e 20EE060B 		vmul.f64	d0, d0, d6
 5028              	.LVL451:
 5029              		.loc 7 162 1 is_stmt 0 view .LVU822
 5030 0022 20EE070B 		vmul.f64	d0, d0, d7
 5031              	.LVL452:
 5032              		.loc 7 162 1 view .LVU823
 5033 0026 08BD     		pop	{r3, pc}
 5034              	.L365:
 5035              		.align	3
 5036              	.L364:
 5037 0028 7E858583 		.word	-2088401538
 5038 002c 3636E53F 		.word	1071986230
 5039 0030 B5310362 		.word	1644376501
 5040 0034 DF7A03C0 		.word	-1073513761
 5041 0038 04A126B7 		.word	-1222205180
 5042 003c F2686840 		.word	1080584434
 5043 0040 15369986 		.word	-2036779499
 5044 0044 FC96413F 		.word	1061263100
 5045              		.cfi_endproc
 5046              	.LFE3667:
 5048              		.section	.text._Z25enclosure_F_O_Sharpf_funcd,"ax",%progbits
 5049              		.align	1
 5050              		.p2align 2,,3
 5051              		.global	_Z25enclosure_F_O_Sharpf_funcd
 5052              		.syntax unified
 5053              		.thumb
 5054              		.thumb_func
 5056              	_Z25enclosure_F_O_Sharpf_funcd:
 5057              	.LVL453:
 5058              	.LFB3668:
 163:enclosure_funcs.hpp **** 
 164:enclosure_funcs.hpp **** // F# O
 165:enclosure_funcs.hpp **** CREATE_ENCLOSURE_FUNC(F_O_Sharpf, 0.250000000000000,	2.393072689442137e+03,	1.715773580614476,	0.60
 5059              		.loc 7 165 1 is_stmt 1 view -0
 5060              		.cfi_startproc
 5061              		@ args = 0, pretend = 0, frame = 0
 5062              		@ frame_needed = 0, uses_anonymous_args = 0
 5063              		.loc 7 165 1 view .LVU825
 5064              		.loc 7 165 1 view .LVU826
 5065              		.loc 7 165 1 view .LVU827
 5066 0000 9FED091B 		vldr.64	d1, .L368
 5067 0004 08B5     		push	{r3, lr}
 5068              		.cfi_def_cfa_offset 8
ARM GAS  C:\Users\Owner\AppData\Local\Temp\ccv0lMJk.s 			page 96


 5069              		.cfi_offset 3, -8
 5070              		.cfi_offset 14, -4
 5071              		.loc 7 165 1 is_stmt 0 view .LVU828
 5072 0006 FFF7FEFF 		bl	pow
 5073              	.LVL454:
 5074              		.loc 7 165 1 discriminator 1 view .LVU829
 5075 000a 9FED097B 		vldr.64	d7, .L368+8
 5076 000e 20EE070B 		vmul.f64	d0, d0, d7
 5077 0012 FFF7FEFF 		bl	exp
 5078              	.LVL455:
 5079              		.loc 7 165 1 is_stmt 1 discriminator 2 view .LVU830
 5080 0016 9FED086B 		vldr.64	d6, .L368+16
 5081 001a 9FED097B 		vldr.64	d7, .L368+24
 5082 001e 20EE060B 		vmul.f64	d0, d0, d6
 5083              	.LVL456:
 5084              		.loc 7 165 1 is_stmt 0 view .LVU831
 5085 0022 20EE070B 		vmul.f64	d0, d0, d7
 5086              	.LVL457:
 5087              		.loc 7 165 1 view .LVU832
 5088 0026 08BD     		pop	{r3, pc}
 5089              	.L369:
 5090              		.align	3
 5091              	.L368:
 5092 0028 6D340145 		.word	1157706861
 5093 002c 756DE33F 		.word	1071869301
 5094 0030 A84781FF 		.word	-8304728
 5095 0034 CE73FBBF 		.word	-1074039858
 5096 0038 7CF18C37 		.word	931983740
 5097 003c 25B2A240 		.word	1084404261
 5098 0040 9D404409 		.word	155467933
 5099 0044 BE623B3F 		.word	1060856510
 5100              		.cfi_endproc
 5101              	.LFE3668:
 5103              		.section	.text._Z26enclosure_F_O_Sharph1_funcd,"ax",%progbits
 5104              		.align	1
 5105              		.p2align 2,,3
 5106              		.global	_Z26enclosure_F_O_Sharph1_funcd
 5107              		.syntax unified
 5108              		.thumb
 5109              		.thumb_func
 5111              	_Z26enclosure_F_O_Sharph1_funcd:
 5112              	.LVL458:
 5113              	.LFB3669:
 166:enclosure_funcs.hpp **** CREATE_ENCLOSURE_FUNC(F_O_Sharph1, 0.125000000000000,	5.204390797934303e+02,	2.044797526476342,	0.6
 5114              		.loc 7 166 1 is_stmt 1 view -0
 5115              		.cfi_startproc
 5116              		@ args = 0, pretend = 0, frame = 0
 5117              		@ frame_needed = 0, uses_anonymous_args = 0
 5118              		.loc 7 166 1 view .LVU834
 5119              		.loc 7 166 1 view .LVU835
 5120              		.loc 7 166 1 view .LVU836
 5121 0000 9FED091B 		vldr.64	d1, .L372
 5122 0004 08B5     		push	{r3, lr}
 5123              		.cfi_def_cfa_offset 8
 5124              		.cfi_offset 3, -8
 5125              		.cfi_offset 14, -4
 5126              		.loc 7 166 1 is_stmt 0 view .LVU837
ARM GAS  C:\Users\Owner\AppData\Local\Temp\ccv0lMJk.s 			page 97


 5127 0006 FFF7FEFF 		bl	pow
 5128              	.LVL459:
 5129              		.loc 7 166 1 discriminator 1 view .LVU838
 5130 000a 9FED097B 		vldr.64	d7, .L372+8
 5131 000e 20EE070B 		vmul.f64	d0, d0, d7
 5132 0012 FFF7FEFF 		bl	exp
 5133              	.LVL460:
 5134              		.loc 7 166 1 is_stmt 1 discriminator 2 view .LVU839
 5135 0016 9FED086B 		vldr.64	d6, .L372+16
 5136 001a 9FED097B 		vldr.64	d7, .L372+24
 5137 001e 20EE060B 		vmul.f64	d0, d0, d6
 5138              	.LVL461:
 5139              		.loc 7 166 1 is_stmt 0 view .LVU840
 5140 0022 20EE070B 		vmul.f64	d0, d0, d7
 5141              	.LVL462:
 5142              		.loc 7 166 1 view .LVU841
 5143 0026 08BD     		pop	{r3, pc}
 5144              	.L373:
 5145              		.align	3
 5146              	.L372:
 5147 0028 850C40F1 		.word	-247460731
 5148 002c 3114E43F 		.word	1071911985
 5149 0030 BB4239CE 		.word	-835108165
 5150 0034 BE5B00C0 		.word	-1073718338
 5151 0038 F148443C 		.word	1011108081
 5152 003c 83438040 		.word	1082147715
 5153 0040 9D404409 		.word	155467933
 5154 0044 BE623B3F 		.word	1060856510
 5155              		.cfi_endproc
 5156              	.LFE3669:
 5158              		.section	.text._Z26enclosure_F_O_Sharph2_funcd,"ax",%progbits
 5159              		.align	1
 5160              		.p2align 2,,3
 5161              		.global	_Z26enclosure_F_O_Sharph2_funcd
 5162              		.syntax unified
 5163              		.thumb
 5164              		.thumb_func
 5166              	_Z26enclosure_F_O_Sharph2_funcd:
 5167              	.LVL463:
 5168              	.LFB3670:
 167:enclosure_funcs.hpp **** CREATE_ENCLOSURE_FUNC(F_O_Sharph2, 0.125000000000000,	2.106015935666903e+02,	1.474762293265789,	0.8
 5169              		.loc 7 167 1 is_stmt 1 view -0
 5170              		.cfi_startproc
 5171              		@ args = 0, pretend = 0, frame = 0
 5172              		@ frame_needed = 0, uses_anonymous_args = 0
 5173              		.loc 7 167 1 view .LVU843
 5174              		.loc 7 167 1 view .LVU844
 5175              		.loc 7 167 1 view .LVU845
 5176 0000 9FED091B 		vldr.64	d1, .L376
 5177 0004 08B5     		push	{r3, lr}
 5178              		.cfi_def_cfa_offset 8
 5179              		.cfi_offset 3, -8
 5180              		.cfi_offset 14, -4
 5181              		.loc 7 167 1 is_stmt 0 view .LVU846
 5182 0006 FFF7FEFF 		bl	pow
 5183              	.LVL464:
 5184              		.loc 7 167 1 discriminator 1 view .LVU847
ARM GAS  C:\Users\Owner\AppData\Local\Temp\ccv0lMJk.s 			page 98


 5185 000a 9FED097B 		vldr.64	d7, .L376+8
 5186 000e 20EE070B 		vmul.f64	d0, d0, d7
 5187 0012 FFF7FEFF 		bl	exp
 5188              	.LVL465:
 5189              		.loc 7 167 1 is_stmt 1 discriminator 2 view .LVU848
 5190 0016 9FED086B 		vldr.64	d6, .L376+16
 5191 001a 9FED097B 		vldr.64	d7, .L376+24
 5192 001e 20EE060B 		vmul.f64	d0, d0, d6
 5193              	.LVL466:
 5194              		.loc 7 167 1 is_stmt 0 view .LVU849
 5195 0022 20EE070B 		vmul.f64	d0, d0, d7
 5196              	.LVL467:
 5197              		.loc 7 167 1 view .LVU850
 5198 0026 08BD     		pop	{r3, pc}
 5199              	.L377:
 5200              		.align	3
 5201              	.L376:
 5202 0028 091A9632 		.word	848697865
 5203 002c 67FDE93F 		.word	1072299367
 5204 0030 5935AF58 		.word	1487877465
 5205 0034 A098F7BF 		.word	-1074292576
 5206 0038 67CD2641 		.word	1093061991
 5207 003c 40536A40 		.word	1080709952
 5208 0040 9D404409 		.word	155467933
 5209 0044 BE623B3F 		.word	1060856510
 5210              		.cfi_endproc
 5211              	.LFE3670:
 5213              		.section	.text._Z26enclosure_F_O_Sharph3_funcd,"ax",%progbits
 5214              		.align	1
 5215              		.p2align 2,,3
 5216              		.global	_Z26enclosure_F_O_Sharph3_funcd
 5217              		.syntax unified
 5218              		.thumb
 5219              		.thumb_func
 5221              	_Z26enclosure_F_O_Sharph3_funcd:
 5222              	.LVL468:
 5223              	.LFB3671:
 168:enclosure_funcs.hpp **** CREATE_ENCLOSURE_FUNC(F_O_Sharph3, 0.125000000000000,	1.442030861477510e+02,	2.903609066380184,	0.5
 5224              		.loc 7 168 1 is_stmt 1 view -0
 5225              		.cfi_startproc
