ARM GAS  C:\Users\Owner\AppData\Local\Temp\cctnuIAx.s 			page 1


   1              		.cpu cortex-m7
   2              		.arch armv7e-m
   3              		.fpu fpv5-d16
   4              		.eabi_attribute 28, 1
   5              		.eabi_attribute 20, 1
   6              		.eabi_attribute 21, 1
   7              		.eabi_attribute 23, 3
   8              		.eabi_attribute 24, 1
   9              		.eabi_attribute 25, 1
  10              		.eabi_attribute 26, 1
  11              		.eabi_attribute 30, 2
  12              		.eabi_attribute 34, 1
  13              		.eabi_attribute 18, 4
  14              		.file	"keyboard.cpp"
  15              		.text
  16              	.Ltext0:
  17              		.cfi_sections	.debug_frame
  18              		.file 1 "keyboard.cpp"
  19              		.section	.rodata._ZN8KeyboardC2EPNS_7freqs_tEPNS_17note_enclosures_tE.str1.4,"aMS",%progbits,1
  20              		.align	2
  21              	.LC0:
  22 0000 756E6F72 		.ascii	"unordered_map::at\000"
  22      64657265 
  22      645F6D61 
  22      703A3A61 
  22      7400
  23              		.section	.text._ZN8KeyboardC2EPNS_7freqs_tEPNS_17note_enclosures_tE,"ax",%progbits
  24              		.align	1
  25              		.p2align 2,,3
  26              		.global	_ZN8KeyboardC2EPNS_7freqs_tEPNS_17note_enclosures_tE
  27              		.syntax unified
  28              		.thumb
  29              		.thumb_func
  31              	_ZN8KeyboardC2EPNS_7freqs_tEPNS_17note_enclosures_tE:
  32              	.LVL0:
  33              	.LFB3660:
   1:keyboard.cpp  **** #include "key.hpp"
   2:keyboard.cpp  **** #include "keyboard.hpp"
   3:keyboard.cpp  **** #include <unordered_map>
   4:keyboard.cpp  **** #include <vector>
   5:keyboard.cpp  **** #include "daisy_seed.h"
   6:keyboard.cpp  **** 
   7:keyboard.cpp  **** 
   8:keyboard.cpp  **** Keyboard::Keyboard(freqs_t freqs[24], note_enclosures_t enclosures[24])
  34              		.loc 1 8 1 view -0
  35              		.cfi_startproc
  36              		@ args = 0, pretend = 0, frame = 168
  37              		@ frame_needed = 0, uses_anonymous_args = 0
  38              		.loc 1 8 1 is_stmt 0 view .LVU1
  39 0000 2DE9F04F 		push	{r4, r5, r6, r7, r8, r9, r10, fp, lr}
  40              		.cfi_def_cfa_offset 36
  41              		.cfi_offset 4, -36
  42              		.cfi_offset 5, -32
  43              		.cfi_offset 6, -28
  44              		.cfi_offset 7, -24
  45              		.cfi_offset 8, -20
  46              		.cfi_offset 9, -16
ARM GAS  C:\Users\Owner\AppData\Local\Temp\cctnuIAx.s 			page 2


  47              		.cfi_offset 10, -12
  48              		.cfi_offset 11, -8
  49              		.cfi_offset 14, -4
  50              	.LBB3785:
  51              	.LBB3786:
  52              	.LBB3787:
  53              		.file 2 "C:/Program Files (x86)/GNU Tools Arm Embedded/version13-3/arm-none-eabi/include/c++/13.3.
   1:C:/Program Files (x86)/GNU Tools Arm Embedded/version13-3/arm-none-eabi/include/c++/13.3.1/bits\hashtable.h **** // hashtable.h header -*- C++ -*-
   2:C:/Program Files (x86)/GNU Tools Arm Embedded/version13-3/arm-none-eabi/include/c++/13.3.1/bits\hashtable.h **** 
   3:C:/Program Files (x86)/GNU Tools Arm Embedded/version13-3/arm-none-eabi/include/c++/13.3.1/bits\hashtable.h **** // Copyright (C) 2007-2023 Free Software Foundation, Inc.
   4:C:/Program Files (x86)/GNU Tools Arm Embedded/version13-3/arm-none-eabi/include/c++/13.3.1/bits\hashtable.h **** //
   5:C:/Program Files (x86)/GNU Tools Arm Embedded/version13-3/arm-none-eabi/include/c++/13.3.1/bits\hashtable.h **** // This file is part of the GNU ISO C++ Library.  This library is free
   6:C:/Program Files (x86)/GNU Tools Arm Embedded/version13-3/arm-none-eabi/include/c++/13.3.1/bits\hashtable.h **** // software; you can redistribute it and/or modify it under the
   7:C:/Program Files (x86)/GNU Tools Arm Embedded/version13-3/arm-none-eabi/include/c++/13.3.1/bits\hashtable.h **** // terms of the GNU General Public License as published by the
   8:C:/Program Files (x86)/GNU Tools Arm Embedded/version13-3/arm-none-eabi/include/c++/13.3.1/bits\hashtable.h **** // Free Software Foundation; either version 3, or (at your option)
   9:C:/Program Files (x86)/GNU Tools Arm Embedded/version13-3/arm-none-eabi/include/c++/13.3.1/bits\hashtable.h **** // any later version.
  10:C:/Program Files (x86)/GNU Tools Arm Embedded/version13-3/arm-none-eabi/include/c++/13.3.1/bits\hashtable.h **** 
  11:C:/Program Files (x86)/GNU Tools Arm Embedded/version13-3/arm-none-eabi/include/c++/13.3.1/bits\hashtable.h **** // This library is distributed in the hope that it will be useful,
  12:C:/Program Files (x86)/GNU Tools Arm Embedded/version13-3/arm-none-eabi/include/c++/13.3.1/bits\hashtable.h **** // but WITHOUT ANY WARRANTY; without even the implied warranty of
  13:C:/Program Files (x86)/GNU Tools Arm Embedded/version13-3/arm-none-eabi/include/c++/13.3.1/bits\hashtable.h **** // MERCHANTABILITY or FITNESS FOR A PARTICULAR PURPOSE.  See the
  14:C:/Program Files (x86)/GNU Tools Arm Embedded/version13-3/arm-none-eabi/include/c++/13.3.1/bits\hashtable.h **** // GNU General Public License for more details.
  15:C:/Program Files (x86)/GNU Tools Arm Embedded/version13-3/arm-none-eabi/include/c++/13.3.1/bits\hashtable.h **** 
  16:C:/Program Files (x86)/GNU Tools Arm Embedded/version13-3/arm-none-eabi/include/c++/13.3.1/bits\hashtable.h **** // Under Section 7 of GPL version 3, you are granted additional
  17:C:/Program Files (x86)/GNU Tools Arm Embedded/version13-3/arm-none-eabi/include/c++/13.3.1/bits\hashtable.h **** // permissions described in the GCC Runtime Library Exception, version
  18:C:/Program Files (x86)/GNU Tools Arm Embedded/version13-3/arm-none-eabi/include/c++/13.3.1/bits\hashtable.h **** // 3.1, as published by the Free Software Foundation.
  19:C:/Program Files (x86)/GNU Tools Arm Embedded/version13-3/arm-none-eabi/include/c++/13.3.1/bits\hashtable.h **** 
  20:C:/Program Files (x86)/GNU Tools Arm Embedded/version13-3/arm-none-eabi/include/c++/13.3.1/bits\hashtable.h **** // You should have received a copy of the GNU General Public License and
  21:C:/Program Files (x86)/GNU Tools Arm Embedded/version13-3/arm-none-eabi/include/c++/13.3.1/bits\hashtable.h **** // a copy of the GCC Runtime Library Exception along with this program;
  22:C:/Program Files (x86)/GNU Tools Arm Embedded/version13-3/arm-none-eabi/include/c++/13.3.1/bits\hashtable.h **** // see the files COPYING3 and COPYING.RUNTIME respectively.  If not, see
  23:C:/Program Files (x86)/GNU Tools Arm Embedded/version13-3/arm-none-eabi/include/c++/13.3.1/bits\hashtable.h **** // <http://www.gnu.org/licenses/>.
  24:C:/Program Files (x86)/GNU Tools Arm Embedded/version13-3/arm-none-eabi/include/c++/13.3.1/bits\hashtable.h **** 
  25:C:/Program Files (x86)/GNU Tools Arm Embedded/version13-3/arm-none-eabi/include/c++/13.3.1/bits\hashtable.h **** /** @file bits/hashtable.h
  26:C:/Program Files (x86)/GNU Tools Arm Embedded/version13-3/arm-none-eabi/include/c++/13.3.1/bits\hashtable.h ****  *  This is an internal header file, included by other library headers.
  27:C:/Program Files (x86)/GNU Tools Arm Embedded/version13-3/arm-none-eabi/include/c++/13.3.1/bits\hashtable.h ****  *  Do not attempt to use it directly. @headername{unordered_map, unordered_set}
  28:C:/Program Files (x86)/GNU Tools Arm Embedded/version13-3/arm-none-eabi/include/c++/13.3.1/bits\hashtable.h ****  */
  29:C:/Program Files (x86)/GNU Tools Arm Embedded/version13-3/arm-none-eabi/include/c++/13.3.1/bits\hashtable.h **** 
  30:C:/Program Files (x86)/GNU Tools Arm Embedded/version13-3/arm-none-eabi/include/c++/13.3.1/bits\hashtable.h **** #ifndef _HASHTABLE_H
  31:C:/Program Files (x86)/GNU Tools Arm Embedded/version13-3/arm-none-eabi/include/c++/13.3.1/bits\hashtable.h **** #define _HASHTABLE_H 1
  32:C:/Program Files (x86)/GNU Tools Arm Embedded/version13-3/arm-none-eabi/include/c++/13.3.1/bits\hashtable.h **** 
  33:C:/Program Files (x86)/GNU Tools Arm Embedded/version13-3/arm-none-eabi/include/c++/13.3.1/bits\hashtable.h **** #pragma GCC system_header
  34:C:/Program Files (x86)/GNU Tools Arm Embedded/version13-3/arm-none-eabi/include/c++/13.3.1/bits\hashtable.h **** 
  35:C:/Program Files (x86)/GNU Tools Arm Embedded/version13-3/arm-none-eabi/include/c++/13.3.1/bits\hashtable.h **** #include <bits/hashtable_policy.h>
  36:C:/Program Files (x86)/GNU Tools Arm Embedded/version13-3/arm-none-eabi/include/c++/13.3.1/bits\hashtable.h **** #include <bits/enable_special_members.h>
  37:C:/Program Files (x86)/GNU Tools Arm Embedded/version13-3/arm-none-eabi/include/c++/13.3.1/bits\hashtable.h **** #include <bits/stl_function.h> // __has_is_transparent_t
  38:C:/Program Files (x86)/GNU Tools Arm Embedded/version13-3/arm-none-eabi/include/c++/13.3.1/bits\hashtable.h **** #if __cplusplus > 201402L
  39:C:/Program Files (x86)/GNU Tools Arm Embedded/version13-3/arm-none-eabi/include/c++/13.3.1/bits\hashtable.h **** # include <bits/node_handle.h>
  40:C:/Program Files (x86)/GNU Tools Arm Embedded/version13-3/arm-none-eabi/include/c++/13.3.1/bits\hashtable.h **** #endif
  41:C:/Program Files (x86)/GNU Tools Arm Embedded/version13-3/arm-none-eabi/include/c++/13.3.1/bits\hashtable.h **** 
  42:C:/Program Files (x86)/GNU Tools Arm Embedded/version13-3/arm-none-eabi/include/c++/13.3.1/bits\hashtable.h **** namespace std _GLIBCXX_VISIBILITY(default)
  43:C:/Program Files (x86)/GNU Tools Arm Embedded/version13-3/arm-none-eabi/include/c++/13.3.1/bits\hashtable.h **** {
  44:C:/Program Files (x86)/GNU Tools Arm Embedded/version13-3/arm-none-eabi/include/c++/13.3.1/bits\hashtable.h **** _GLIBCXX_BEGIN_NAMESPACE_VERSION
  45:C:/Program Files (x86)/GNU Tools Arm Embedded/version13-3/arm-none-eabi/include/c++/13.3.1/bits\hashtable.h **** /// @cond undocumented
  46:C:/Program Files (x86)/GNU Tools Arm Embedded/version13-3/arm-none-eabi/include/c++/13.3.1/bits\hashtable.h **** 
  47:C:/Program Files (x86)/GNU Tools Arm Embedded/version13-3/arm-none-eabi/include/c++/13.3.1/bits\hashtable.h ****   template<typename _Tp, typename _Hash>
  48:C:/Program Files (x86)/GNU Tools Arm Embedded/version13-3/arm-none-eabi/include/c++/13.3.1/bits\hashtable.h ****     using __cache_default
  49:C:/Program Files (x86)/GNU Tools Arm Embedded/version13-3/arm-none-eabi/include/c++/13.3.1/bits\hashtable.h ****       =  __not_<__and_<// Do not cache for fast hasher.
  50:C:/Program Files (x86)/GNU Tools Arm Embedded/version13-3/arm-none-eabi/include/c++/13.3.1/bits\hashtable.h **** 		       __is_fast_hash<_Hash>,
ARM GAS  C:\Users\Owner\AppData\Local\Temp\cctnuIAx.s 			page 3


  51:C:/Program Files (x86)/GNU Tools Arm Embedded/version13-3/arm-none-eabi/include/c++/13.3.1/bits\hashtable.h **** 		       // Mandatory to have erase not throwing.
  52:C:/Program Files (x86)/GNU Tools Arm Embedded/version13-3/arm-none-eabi/include/c++/13.3.1/bits\hashtable.h **** 		       __is_nothrow_invocable<const _Hash&, const _Tp&>>>;
  53:C:/Program Files (x86)/GNU Tools Arm Embedded/version13-3/arm-none-eabi/include/c++/13.3.1/bits\hashtable.h **** 
  54:C:/Program Files (x86)/GNU Tools Arm Embedded/version13-3/arm-none-eabi/include/c++/13.3.1/bits\hashtable.h ****   // Helper to conditionally delete the default constructor.
  55:C:/Program Files (x86)/GNU Tools Arm Embedded/version13-3/arm-none-eabi/include/c++/13.3.1/bits\hashtable.h ****   // The _Hash_node_base type is used to distinguish this specialization
  56:C:/Program Files (x86)/GNU Tools Arm Embedded/version13-3/arm-none-eabi/include/c++/13.3.1/bits\hashtable.h ****   // from any other potentially-overlapping subobjects of the hashtable.
  57:C:/Program Files (x86)/GNU Tools Arm Embedded/version13-3/arm-none-eabi/include/c++/13.3.1/bits\hashtable.h ****   template<typename _Equal, typename _Hash, typename _Allocator>
  58:C:/Program Files (x86)/GNU Tools Arm Embedded/version13-3/arm-none-eabi/include/c++/13.3.1/bits\hashtable.h ****     using _Hashtable_enable_default_ctor
  59:C:/Program Files (x86)/GNU Tools Arm Embedded/version13-3/arm-none-eabi/include/c++/13.3.1/bits\hashtable.h ****       = _Enable_default_constructor<__and_<is_default_constructible<_Equal>,
  60:C:/Program Files (x86)/GNU Tools Arm Embedded/version13-3/arm-none-eabi/include/c++/13.3.1/bits\hashtable.h **** 				       is_default_constructible<_Hash>,
  61:C:/Program Files (x86)/GNU Tools Arm Embedded/version13-3/arm-none-eabi/include/c++/13.3.1/bits\hashtable.h **** 				       is_default_constructible<_Allocator>>{},
  62:C:/Program Files (x86)/GNU Tools Arm Embedded/version13-3/arm-none-eabi/include/c++/13.3.1/bits\hashtable.h **** 				    __detail::_Hash_node_base>;
  63:C:/Program Files (x86)/GNU Tools Arm Embedded/version13-3/arm-none-eabi/include/c++/13.3.1/bits\hashtable.h **** 
  64:C:/Program Files (x86)/GNU Tools Arm Embedded/version13-3/arm-none-eabi/include/c++/13.3.1/bits\hashtable.h ****   /**
  65:C:/Program Files (x86)/GNU Tools Arm Embedded/version13-3/arm-none-eabi/include/c++/13.3.1/bits\hashtable.h ****    *  Primary class template _Hashtable.
  66:C:/Program Files (x86)/GNU Tools Arm Embedded/version13-3/arm-none-eabi/include/c++/13.3.1/bits\hashtable.h ****    *
  67:C:/Program Files (x86)/GNU Tools Arm Embedded/version13-3/arm-none-eabi/include/c++/13.3.1/bits\hashtable.h ****    *  @ingroup hashtable-detail
  68:C:/Program Files (x86)/GNU Tools Arm Embedded/version13-3/arm-none-eabi/include/c++/13.3.1/bits\hashtable.h ****    *
  69:C:/Program Files (x86)/GNU Tools Arm Embedded/version13-3/arm-none-eabi/include/c++/13.3.1/bits\hashtable.h ****    *  @tparam _Value  CopyConstructible type.
  70:C:/Program Files (x86)/GNU Tools Arm Embedded/version13-3/arm-none-eabi/include/c++/13.3.1/bits\hashtable.h ****    *
  71:C:/Program Files (x86)/GNU Tools Arm Embedded/version13-3/arm-none-eabi/include/c++/13.3.1/bits\hashtable.h ****    *  @tparam _Key    CopyConstructible type.
  72:C:/Program Files (x86)/GNU Tools Arm Embedded/version13-3/arm-none-eabi/include/c++/13.3.1/bits\hashtable.h ****    *
  73:C:/Program Files (x86)/GNU Tools Arm Embedded/version13-3/arm-none-eabi/include/c++/13.3.1/bits\hashtable.h ****    *  @tparam _Alloc  An allocator type
  74:C:/Program Files (x86)/GNU Tools Arm Embedded/version13-3/arm-none-eabi/include/c++/13.3.1/bits\hashtable.h ****    *  ([lib.allocator.requirements]) whose _Alloc::value_type is
  75:C:/Program Files (x86)/GNU Tools Arm Embedded/version13-3/arm-none-eabi/include/c++/13.3.1/bits\hashtable.h ****    *  _Value.  As a conforming extension, we allow for
  76:C:/Program Files (x86)/GNU Tools Arm Embedded/version13-3/arm-none-eabi/include/c++/13.3.1/bits\hashtable.h ****    *  _Alloc::value_type != _Value.
  77:C:/Program Files (x86)/GNU Tools Arm Embedded/version13-3/arm-none-eabi/include/c++/13.3.1/bits\hashtable.h ****    *
  78:C:/Program Files (x86)/GNU Tools Arm Embedded/version13-3/arm-none-eabi/include/c++/13.3.1/bits\hashtable.h ****    *  @tparam _ExtractKey  Function object that takes an object of type
  79:C:/Program Files (x86)/GNU Tools Arm Embedded/version13-3/arm-none-eabi/include/c++/13.3.1/bits\hashtable.h ****    *  _Value and returns a value of type _Key.
  80:C:/Program Files (x86)/GNU Tools Arm Embedded/version13-3/arm-none-eabi/include/c++/13.3.1/bits\hashtable.h ****    *
  81:C:/Program Files (x86)/GNU Tools Arm Embedded/version13-3/arm-none-eabi/include/c++/13.3.1/bits\hashtable.h ****    *  @tparam _Equal  Function object that takes two objects of type k
  82:C:/Program Files (x86)/GNU Tools Arm Embedded/version13-3/arm-none-eabi/include/c++/13.3.1/bits\hashtable.h ****    *  and returns a bool-like value that is true if the two objects
  83:C:/Program Files (x86)/GNU Tools Arm Embedded/version13-3/arm-none-eabi/include/c++/13.3.1/bits\hashtable.h ****    *  are considered equal.
  84:C:/Program Files (x86)/GNU Tools Arm Embedded/version13-3/arm-none-eabi/include/c++/13.3.1/bits\hashtable.h ****    *
  85:C:/Program Files (x86)/GNU Tools Arm Embedded/version13-3/arm-none-eabi/include/c++/13.3.1/bits\hashtable.h ****    *  @tparam _Hash  The hash function. A unary function object with
  86:C:/Program Files (x86)/GNU Tools Arm Embedded/version13-3/arm-none-eabi/include/c++/13.3.1/bits\hashtable.h ****    *  argument type _Key and result type size_t. Return values should
  87:C:/Program Files (x86)/GNU Tools Arm Embedded/version13-3/arm-none-eabi/include/c++/13.3.1/bits\hashtable.h ****    *  be distributed over the entire range [0, numeric_limits<size_t>:::max()].
  88:C:/Program Files (x86)/GNU Tools Arm Embedded/version13-3/arm-none-eabi/include/c++/13.3.1/bits\hashtable.h ****    *
  89:C:/Program Files (x86)/GNU Tools Arm Embedded/version13-3/arm-none-eabi/include/c++/13.3.1/bits\hashtable.h ****    *  @tparam _RangeHash  The range-hashing function (in the terminology of
  90:C:/Program Files (x86)/GNU Tools Arm Embedded/version13-3/arm-none-eabi/include/c++/13.3.1/bits\hashtable.h ****    *  Tavori and Dreizin).  A binary function object whose argument
  91:C:/Program Files (x86)/GNU Tools Arm Embedded/version13-3/arm-none-eabi/include/c++/13.3.1/bits\hashtable.h ****    *  types and result type are all size_t.  Given arguments r and N,
  92:C:/Program Files (x86)/GNU Tools Arm Embedded/version13-3/arm-none-eabi/include/c++/13.3.1/bits\hashtable.h ****    *  the return value is in the range [0, N).
  93:C:/Program Files (x86)/GNU Tools Arm Embedded/version13-3/arm-none-eabi/include/c++/13.3.1/bits\hashtable.h ****    *
  94:C:/Program Files (x86)/GNU Tools Arm Embedded/version13-3/arm-none-eabi/include/c++/13.3.1/bits\hashtable.h ****    *  @tparam _Unused  Not used.
  95:C:/Program Files (x86)/GNU Tools Arm Embedded/version13-3/arm-none-eabi/include/c++/13.3.1/bits\hashtable.h ****    *
  96:C:/Program Files (x86)/GNU Tools Arm Embedded/version13-3/arm-none-eabi/include/c++/13.3.1/bits\hashtable.h ****    *  @tparam _RehashPolicy  Policy class with three members, all of
  97:C:/Program Files (x86)/GNU Tools Arm Embedded/version13-3/arm-none-eabi/include/c++/13.3.1/bits\hashtable.h ****    *  which govern the bucket count. _M_next_bkt(n) returns a bucket
  98:C:/Program Files (x86)/GNU Tools Arm Embedded/version13-3/arm-none-eabi/include/c++/13.3.1/bits\hashtable.h ****    *  count no smaller than n.  _M_bkt_for_elements(n) returns a
  99:C:/Program Files (x86)/GNU Tools Arm Embedded/version13-3/arm-none-eabi/include/c++/13.3.1/bits\hashtable.h ****    *  bucket count appropriate for an element count of n.
 100:C:/Program Files (x86)/GNU Tools Arm Embedded/version13-3/arm-none-eabi/include/c++/13.3.1/bits\hashtable.h ****    *  _M_need_rehash(n_bkt, n_elt, n_ins) determines whether, if the
 101:C:/Program Files (x86)/GNU Tools Arm Embedded/version13-3/arm-none-eabi/include/c++/13.3.1/bits\hashtable.h ****    *  current bucket count is n_bkt and the current element count is
 102:C:/Program Files (x86)/GNU Tools Arm Embedded/version13-3/arm-none-eabi/include/c++/13.3.1/bits\hashtable.h ****    *  n_elt, we need to increase the bucket count for n_ins insertions.
 103:C:/Program Files (x86)/GNU Tools Arm Embedded/version13-3/arm-none-eabi/include/c++/13.3.1/bits\hashtable.h ****    *  If so, returns make_pair(true, n), where n is the new bucket count. If
 104:C:/Program Files (x86)/GNU Tools Arm Embedded/version13-3/arm-none-eabi/include/c++/13.3.1/bits\hashtable.h ****    *  not, returns make_pair(false, <anything>)
 105:C:/Program Files (x86)/GNU Tools Arm Embedded/version13-3/arm-none-eabi/include/c++/13.3.1/bits\hashtable.h ****    *
 106:C:/Program Files (x86)/GNU Tools Arm Embedded/version13-3/arm-none-eabi/include/c++/13.3.1/bits\hashtable.h ****    *  @tparam _Traits  Compile-time class with three boolean
 107:C:/Program Files (x86)/GNU Tools Arm Embedded/version13-3/arm-none-eabi/include/c++/13.3.1/bits\hashtable.h ****    *  std::integral_constant members:  __cache_hash_code, __constant_iterators,
ARM GAS  C:\Users\Owner\AppData\Local\Temp\cctnuIAx.s 			page 4


 108:C:/Program Files (x86)/GNU Tools Arm Embedded/version13-3/arm-none-eabi/include/c++/13.3.1/bits\hashtable.h ****    *   __unique_keys.
 109:C:/Program Files (x86)/GNU Tools Arm Embedded/version13-3/arm-none-eabi/include/c++/13.3.1/bits\hashtable.h ****    *
 110:C:/Program Files (x86)/GNU Tools Arm Embedded/version13-3/arm-none-eabi/include/c++/13.3.1/bits\hashtable.h ****    *  Each _Hashtable data structure has:
 111:C:/Program Files (x86)/GNU Tools Arm Embedded/version13-3/arm-none-eabi/include/c++/13.3.1/bits\hashtable.h ****    *
 112:C:/Program Files (x86)/GNU Tools Arm Embedded/version13-3/arm-none-eabi/include/c++/13.3.1/bits\hashtable.h ****    *  - _Bucket[]       _M_buckets
 113:C:/Program Files (x86)/GNU Tools Arm Embedded/version13-3/arm-none-eabi/include/c++/13.3.1/bits\hashtable.h ****    *  - _Hash_node_base _M_before_begin
 114:C:/Program Files (x86)/GNU Tools Arm Embedded/version13-3/arm-none-eabi/include/c++/13.3.1/bits\hashtable.h ****    *  - size_type       _M_bucket_count
 115:C:/Program Files (x86)/GNU Tools Arm Embedded/version13-3/arm-none-eabi/include/c++/13.3.1/bits\hashtable.h ****    *  - size_type       _M_element_count
 116:C:/Program Files (x86)/GNU Tools Arm Embedded/version13-3/arm-none-eabi/include/c++/13.3.1/bits\hashtable.h ****    *
 117:C:/Program Files (x86)/GNU Tools Arm Embedded/version13-3/arm-none-eabi/include/c++/13.3.1/bits\hashtable.h ****    *  with _Bucket being _Hash_node_base* and _Hash_node containing:
 118:C:/Program Files (x86)/GNU Tools Arm Embedded/version13-3/arm-none-eabi/include/c++/13.3.1/bits\hashtable.h ****    *
 119:C:/Program Files (x86)/GNU Tools Arm Embedded/version13-3/arm-none-eabi/include/c++/13.3.1/bits\hashtable.h ****    *  - _Hash_node*   _M_next
 120:C:/Program Files (x86)/GNU Tools Arm Embedded/version13-3/arm-none-eabi/include/c++/13.3.1/bits\hashtable.h ****    *  - Tp            _M_value
 121:C:/Program Files (x86)/GNU Tools Arm Embedded/version13-3/arm-none-eabi/include/c++/13.3.1/bits\hashtable.h ****    *  - size_t        _M_hash_code if cache_hash_code is true
 122:C:/Program Files (x86)/GNU Tools Arm Embedded/version13-3/arm-none-eabi/include/c++/13.3.1/bits\hashtable.h ****    *
 123:C:/Program Files (x86)/GNU Tools Arm Embedded/version13-3/arm-none-eabi/include/c++/13.3.1/bits\hashtable.h ****    *  In terms of Standard containers the hashtable is like the aggregation of:
 124:C:/Program Files (x86)/GNU Tools Arm Embedded/version13-3/arm-none-eabi/include/c++/13.3.1/bits\hashtable.h ****    *
 125:C:/Program Files (x86)/GNU Tools Arm Embedded/version13-3/arm-none-eabi/include/c++/13.3.1/bits\hashtable.h ****    *  - std::forward_list<_Node> containing the elements
 126:C:/Program Files (x86)/GNU Tools Arm Embedded/version13-3/arm-none-eabi/include/c++/13.3.1/bits\hashtable.h ****    *  - std::vector<std::forward_list<_Node>::iterator> representing the buckets
 127:C:/Program Files (x86)/GNU Tools Arm Embedded/version13-3/arm-none-eabi/include/c++/13.3.1/bits\hashtable.h ****    *
 128:C:/Program Files (x86)/GNU Tools Arm Embedded/version13-3/arm-none-eabi/include/c++/13.3.1/bits\hashtable.h ****    *  The non-empty buckets contain the node before the first node in the
 129:C:/Program Files (x86)/GNU Tools Arm Embedded/version13-3/arm-none-eabi/include/c++/13.3.1/bits\hashtable.h ****    *  bucket. This design makes it possible to implement something like a
 130:C:/Program Files (x86)/GNU Tools Arm Embedded/version13-3/arm-none-eabi/include/c++/13.3.1/bits\hashtable.h ****    *  std::forward_list::insert_after on container insertion and
 131:C:/Program Files (x86)/GNU Tools Arm Embedded/version13-3/arm-none-eabi/include/c++/13.3.1/bits\hashtable.h ****    *  std::forward_list::erase_after on container erase
 132:C:/Program Files (x86)/GNU Tools Arm Embedded/version13-3/arm-none-eabi/include/c++/13.3.1/bits\hashtable.h ****    *  calls. _M_before_begin is equivalent to
 133:C:/Program Files (x86)/GNU Tools Arm Embedded/version13-3/arm-none-eabi/include/c++/13.3.1/bits\hashtable.h ****    *  std::forward_list::before_begin. Empty buckets contain
 134:C:/Program Files (x86)/GNU Tools Arm Embedded/version13-3/arm-none-eabi/include/c++/13.3.1/bits\hashtable.h ****    *  nullptr.  Note that one of the non-empty buckets contains
 135:C:/Program Files (x86)/GNU Tools Arm Embedded/version13-3/arm-none-eabi/include/c++/13.3.1/bits\hashtable.h ****    *  &_M_before_begin which is not a dereferenceable node so the
 136:C:/Program Files (x86)/GNU Tools Arm Embedded/version13-3/arm-none-eabi/include/c++/13.3.1/bits\hashtable.h ****    *  node pointer in a bucket shall never be dereferenced, only its
 137:C:/Program Files (x86)/GNU Tools Arm Embedded/version13-3/arm-none-eabi/include/c++/13.3.1/bits\hashtable.h ****    *  next node can be.
 138:C:/Program Files (x86)/GNU Tools Arm Embedded/version13-3/arm-none-eabi/include/c++/13.3.1/bits\hashtable.h ****    *
 139:C:/Program Files (x86)/GNU Tools Arm Embedded/version13-3/arm-none-eabi/include/c++/13.3.1/bits\hashtable.h ****    *  Walking through a bucket's nodes requires a check on the hash code to
 140:C:/Program Files (x86)/GNU Tools Arm Embedded/version13-3/arm-none-eabi/include/c++/13.3.1/bits\hashtable.h ****    *  see if each node is still in the bucket. Such a design assumes a
 141:C:/Program Files (x86)/GNU Tools Arm Embedded/version13-3/arm-none-eabi/include/c++/13.3.1/bits\hashtable.h ****    *  quite efficient hash functor and is one of the reasons it is
 142:C:/Program Files (x86)/GNU Tools Arm Embedded/version13-3/arm-none-eabi/include/c++/13.3.1/bits\hashtable.h ****    *  highly advisable to set __cache_hash_code to true.
 143:C:/Program Files (x86)/GNU Tools Arm Embedded/version13-3/arm-none-eabi/include/c++/13.3.1/bits\hashtable.h ****    *
 144:C:/Program Files (x86)/GNU Tools Arm Embedded/version13-3/arm-none-eabi/include/c++/13.3.1/bits\hashtable.h ****    *  The container iterators are simply built from nodes. This way
 145:C:/Program Files (x86)/GNU Tools Arm Embedded/version13-3/arm-none-eabi/include/c++/13.3.1/bits\hashtable.h ****    *  incrementing the iterator is perfectly efficient independent of
 146:C:/Program Files (x86)/GNU Tools Arm Embedded/version13-3/arm-none-eabi/include/c++/13.3.1/bits\hashtable.h ****    *  how many empty buckets there are in the container.
 147:C:/Program Files (x86)/GNU Tools Arm Embedded/version13-3/arm-none-eabi/include/c++/13.3.1/bits\hashtable.h ****    *
 148:C:/Program Files (x86)/GNU Tools Arm Embedded/version13-3/arm-none-eabi/include/c++/13.3.1/bits\hashtable.h ****    *  On insert we compute the element's hash code and use it to find the
 149:C:/Program Files (x86)/GNU Tools Arm Embedded/version13-3/arm-none-eabi/include/c++/13.3.1/bits\hashtable.h ****    *  bucket index. If the element must be inserted in an empty bucket
 150:C:/Program Files (x86)/GNU Tools Arm Embedded/version13-3/arm-none-eabi/include/c++/13.3.1/bits\hashtable.h ****    *  we add it at the beginning of the singly linked list and make the
 151:C:/Program Files (x86)/GNU Tools Arm Embedded/version13-3/arm-none-eabi/include/c++/13.3.1/bits\hashtable.h ****    *  bucket point to _M_before_begin. The bucket that used to point to
 152:C:/Program Files (x86)/GNU Tools Arm Embedded/version13-3/arm-none-eabi/include/c++/13.3.1/bits\hashtable.h ****    *  _M_before_begin, if any, is updated to point to its new before
 153:C:/Program Files (x86)/GNU Tools Arm Embedded/version13-3/arm-none-eabi/include/c++/13.3.1/bits\hashtable.h ****    *  begin node.
 154:C:/Program Files (x86)/GNU Tools Arm Embedded/version13-3/arm-none-eabi/include/c++/13.3.1/bits\hashtable.h ****    *
 155:C:/Program Files (x86)/GNU Tools Arm Embedded/version13-3/arm-none-eabi/include/c++/13.3.1/bits\hashtable.h ****    *  On erase, the simple iterator design requires using the hash
 156:C:/Program Files (x86)/GNU Tools Arm Embedded/version13-3/arm-none-eabi/include/c++/13.3.1/bits\hashtable.h ****    *  functor to get the index of the bucket to update. For this
 157:C:/Program Files (x86)/GNU Tools Arm Embedded/version13-3/arm-none-eabi/include/c++/13.3.1/bits\hashtable.h ****    *  reason, when __cache_hash_code is set to false the hash functor must
 158:C:/Program Files (x86)/GNU Tools Arm Embedded/version13-3/arm-none-eabi/include/c++/13.3.1/bits\hashtable.h ****    *  not throw and this is enforced by a static assertion.
 159:C:/Program Files (x86)/GNU Tools Arm Embedded/version13-3/arm-none-eabi/include/c++/13.3.1/bits\hashtable.h ****    *
 160:C:/Program Files (x86)/GNU Tools Arm Embedded/version13-3/arm-none-eabi/include/c++/13.3.1/bits\hashtable.h ****    *  Functionality is implemented by decomposition into base classes,
 161:C:/Program Files (x86)/GNU Tools Arm Embedded/version13-3/arm-none-eabi/include/c++/13.3.1/bits\hashtable.h ****    *  where the derived _Hashtable class is used in _Map_base,
 162:C:/Program Files (x86)/GNU Tools Arm Embedded/version13-3/arm-none-eabi/include/c++/13.3.1/bits\hashtable.h ****    *  _Insert, _Rehash_base, and _Equality base classes to access the
 163:C:/Program Files (x86)/GNU Tools Arm Embedded/version13-3/arm-none-eabi/include/c++/13.3.1/bits\hashtable.h ****    *  "this" pointer. _Hashtable_base is used in the base classes as a
 164:C:/Program Files (x86)/GNU Tools Arm Embedded/version13-3/arm-none-eabi/include/c++/13.3.1/bits\hashtable.h ****    *  non-recursive, fully-completed-type so that detailed nested type
ARM GAS  C:\Users\Owner\AppData\Local\Temp\cctnuIAx.s 			page 5


 165:C:/Program Files (x86)/GNU Tools Arm Embedded/version13-3/arm-none-eabi/include/c++/13.3.1/bits\hashtable.h ****    *  information, such as iterator type and node type, can be
 166:C:/Program Files (x86)/GNU Tools Arm Embedded/version13-3/arm-none-eabi/include/c++/13.3.1/bits\hashtable.h ****    *  used. This is similar to the "Curiously Recurring Template
 167:C:/Program Files (x86)/GNU Tools Arm Embedded/version13-3/arm-none-eabi/include/c++/13.3.1/bits\hashtable.h ****    *  Pattern" (CRTP) technique, but uses a reconstructed, not
 168:C:/Program Files (x86)/GNU Tools Arm Embedded/version13-3/arm-none-eabi/include/c++/13.3.1/bits\hashtable.h ****    *  explicitly passed, template pattern.
 169:C:/Program Files (x86)/GNU Tools Arm Embedded/version13-3/arm-none-eabi/include/c++/13.3.1/bits\hashtable.h ****    *
 170:C:/Program Files (x86)/GNU Tools Arm Embedded/version13-3/arm-none-eabi/include/c++/13.3.1/bits\hashtable.h ****    *  Base class templates are: 
 171:C:/Program Files (x86)/GNU Tools Arm Embedded/version13-3/arm-none-eabi/include/c++/13.3.1/bits\hashtable.h ****    *    - __detail::_Hashtable_base
 172:C:/Program Files (x86)/GNU Tools Arm Embedded/version13-3/arm-none-eabi/include/c++/13.3.1/bits\hashtable.h ****    *    - __detail::_Map_base
 173:C:/Program Files (x86)/GNU Tools Arm Embedded/version13-3/arm-none-eabi/include/c++/13.3.1/bits\hashtable.h ****    *    - __detail::_Insert
 174:C:/Program Files (x86)/GNU Tools Arm Embedded/version13-3/arm-none-eabi/include/c++/13.3.1/bits\hashtable.h ****    *    - __detail::_Rehash_base
 175:C:/Program Files (x86)/GNU Tools Arm Embedded/version13-3/arm-none-eabi/include/c++/13.3.1/bits\hashtable.h ****    *    - __detail::_Equality
 176:C:/Program Files (x86)/GNU Tools Arm Embedded/version13-3/arm-none-eabi/include/c++/13.3.1/bits\hashtable.h ****    */
 177:C:/Program Files (x86)/GNU Tools Arm Embedded/version13-3/arm-none-eabi/include/c++/13.3.1/bits\hashtable.h ****   template<typename _Key, typename _Value, typename _Alloc,
 178:C:/Program Files (x86)/GNU Tools Arm Embedded/version13-3/arm-none-eabi/include/c++/13.3.1/bits\hashtable.h **** 	   typename _ExtractKey, typename _Equal,
 179:C:/Program Files (x86)/GNU Tools Arm Embedded/version13-3/arm-none-eabi/include/c++/13.3.1/bits\hashtable.h **** 	   typename _Hash, typename _RangeHash, typename _Unused,
 180:C:/Program Files (x86)/GNU Tools Arm Embedded/version13-3/arm-none-eabi/include/c++/13.3.1/bits\hashtable.h **** 	   typename _RehashPolicy, typename _Traits>
 181:C:/Program Files (x86)/GNU Tools Arm Embedded/version13-3/arm-none-eabi/include/c++/13.3.1/bits\hashtable.h ****     class _Hashtable
 182:C:/Program Files (x86)/GNU Tools Arm Embedded/version13-3/arm-none-eabi/include/c++/13.3.1/bits\hashtable.h ****     : public __detail::_Hashtable_base<_Key, _Value, _ExtractKey, _Equal,
 183:C:/Program Files (x86)/GNU Tools Arm Embedded/version13-3/arm-none-eabi/include/c++/13.3.1/bits\hashtable.h **** 				       _Hash, _RangeHash, _Unused, _Traits>,
 184:C:/Program Files (x86)/GNU Tools Arm Embedded/version13-3/arm-none-eabi/include/c++/13.3.1/bits\hashtable.h ****       public __detail::_Map_base<_Key, _Value, _Alloc, _ExtractKey, _Equal,
 185:C:/Program Files (x86)/GNU Tools Arm Embedded/version13-3/arm-none-eabi/include/c++/13.3.1/bits\hashtable.h **** 				 _Hash, _RangeHash, _Unused,
 186:C:/Program Files (x86)/GNU Tools Arm Embedded/version13-3/arm-none-eabi/include/c++/13.3.1/bits\hashtable.h **** 				 _RehashPolicy, _Traits>,
 187:C:/Program Files (x86)/GNU Tools Arm Embedded/version13-3/arm-none-eabi/include/c++/13.3.1/bits\hashtable.h ****       public __detail::_Insert<_Key, _Value, _Alloc, _ExtractKey, _Equal,
 188:C:/Program Files (x86)/GNU Tools Arm Embedded/version13-3/arm-none-eabi/include/c++/13.3.1/bits\hashtable.h **** 			       _Hash, _RangeHash, _Unused,
 189:C:/Program Files (x86)/GNU Tools Arm Embedded/version13-3/arm-none-eabi/include/c++/13.3.1/bits\hashtable.h **** 			       _RehashPolicy, _Traits>,
 190:C:/Program Files (x86)/GNU Tools Arm Embedded/version13-3/arm-none-eabi/include/c++/13.3.1/bits\hashtable.h ****       public __detail::_Rehash_base<_Key, _Value, _Alloc, _ExtractKey, _Equal,
 191:C:/Program Files (x86)/GNU Tools Arm Embedded/version13-3/arm-none-eabi/include/c++/13.3.1/bits\hashtable.h **** 				    _Hash, _RangeHash, _Unused,
 192:C:/Program Files (x86)/GNU Tools Arm Embedded/version13-3/arm-none-eabi/include/c++/13.3.1/bits\hashtable.h **** 				    _RehashPolicy, _Traits>,
 193:C:/Program Files (x86)/GNU Tools Arm Embedded/version13-3/arm-none-eabi/include/c++/13.3.1/bits\hashtable.h ****       public __detail::_Equality<_Key, _Value, _Alloc, _ExtractKey, _Equal,
 194:C:/Program Files (x86)/GNU Tools Arm Embedded/version13-3/arm-none-eabi/include/c++/13.3.1/bits\hashtable.h **** 				 _Hash, _RangeHash, _Unused,
 195:C:/Program Files (x86)/GNU Tools Arm Embedded/version13-3/arm-none-eabi/include/c++/13.3.1/bits\hashtable.h **** 				 _RehashPolicy, _Traits>,
 196:C:/Program Files (x86)/GNU Tools Arm Embedded/version13-3/arm-none-eabi/include/c++/13.3.1/bits\hashtable.h ****       private __detail::_Hashtable_alloc<
 197:C:/Program Files (x86)/GNU Tools Arm Embedded/version13-3/arm-none-eabi/include/c++/13.3.1/bits\hashtable.h **** 	__alloc_rebind<_Alloc,
 198:C:/Program Files (x86)/GNU Tools Arm Embedded/version13-3/arm-none-eabi/include/c++/13.3.1/bits\hashtable.h **** 		       __detail::_Hash_node<_Value,
 199:C:/Program Files (x86)/GNU Tools Arm Embedded/version13-3/arm-none-eabi/include/c++/13.3.1/bits\hashtable.h **** 					    _Traits::__hash_cached::value>>>,
 200:C:/Program Files (x86)/GNU Tools Arm Embedded/version13-3/arm-none-eabi/include/c++/13.3.1/bits\hashtable.h ****       private _Hashtable_enable_default_ctor<_Equal, _Hash, _Alloc>
 201:C:/Program Files (x86)/GNU Tools Arm Embedded/version13-3/arm-none-eabi/include/c++/13.3.1/bits\hashtable.h ****     {
 202:C:/Program Files (x86)/GNU Tools Arm Embedded/version13-3/arm-none-eabi/include/c++/13.3.1/bits\hashtable.h ****       static_assert(is_same<typename remove_cv<_Value>::type, _Value>::value,
 203:C:/Program Files (x86)/GNU Tools Arm Embedded/version13-3/arm-none-eabi/include/c++/13.3.1/bits\hashtable.h **** 	  "unordered container must have a non-const, non-volatile value_type");
 204:C:/Program Files (x86)/GNU Tools Arm Embedded/version13-3/arm-none-eabi/include/c++/13.3.1/bits\hashtable.h **** #if __cplusplus > 201703L || defined __STRICT_ANSI__
 205:C:/Program Files (x86)/GNU Tools Arm Embedded/version13-3/arm-none-eabi/include/c++/13.3.1/bits\hashtable.h ****       static_assert(is_same<typename _Alloc::value_type, _Value>{},
 206:C:/Program Files (x86)/GNU Tools Arm Embedded/version13-3/arm-none-eabi/include/c++/13.3.1/bits\hashtable.h **** 	  "unordered container must have the same value_type as its allocator");
 207:C:/Program Files (x86)/GNU Tools Arm Embedded/version13-3/arm-none-eabi/include/c++/13.3.1/bits\hashtable.h **** #endif
 208:C:/Program Files (x86)/GNU Tools Arm Embedded/version13-3/arm-none-eabi/include/c++/13.3.1/bits\hashtable.h **** 
 209:C:/Program Files (x86)/GNU Tools Arm Embedded/version13-3/arm-none-eabi/include/c++/13.3.1/bits\hashtable.h ****       using __traits_type = _Traits;
 210:C:/Program Files (x86)/GNU Tools Arm Embedded/version13-3/arm-none-eabi/include/c++/13.3.1/bits\hashtable.h ****       using __hash_cached = typename __traits_type::__hash_cached;
 211:C:/Program Files (x86)/GNU Tools Arm Embedded/version13-3/arm-none-eabi/include/c++/13.3.1/bits\hashtable.h ****       using __constant_iterators = typename __traits_type::__constant_iterators;
 212:C:/Program Files (x86)/GNU Tools Arm Embedded/version13-3/arm-none-eabi/include/c++/13.3.1/bits\hashtable.h ****       using __node_type = __detail::_Hash_node<_Value, __hash_cached::value>;
 213:C:/Program Files (x86)/GNU Tools Arm Embedded/version13-3/arm-none-eabi/include/c++/13.3.1/bits\hashtable.h ****       using __node_alloc_type = __alloc_rebind<_Alloc, __node_type>;
 214:C:/Program Files (x86)/GNU Tools Arm Embedded/version13-3/arm-none-eabi/include/c++/13.3.1/bits\hashtable.h **** 
 215:C:/Program Files (x86)/GNU Tools Arm Embedded/version13-3/arm-none-eabi/include/c++/13.3.1/bits\hashtable.h ****       using __hashtable_alloc = __detail::_Hashtable_alloc<__node_alloc_type>;
 216:C:/Program Files (x86)/GNU Tools Arm Embedded/version13-3/arm-none-eabi/include/c++/13.3.1/bits\hashtable.h **** 
 217:C:/Program Files (x86)/GNU Tools Arm Embedded/version13-3/arm-none-eabi/include/c++/13.3.1/bits\hashtable.h ****       using __node_value_type =
 218:C:/Program Files (x86)/GNU Tools Arm Embedded/version13-3/arm-none-eabi/include/c++/13.3.1/bits\hashtable.h **** 	__detail::_Hash_node_value<_Value, __hash_cached::value>;
 219:C:/Program Files (x86)/GNU Tools Arm Embedded/version13-3/arm-none-eabi/include/c++/13.3.1/bits\hashtable.h ****       using __node_ptr = typename __hashtable_alloc::__node_ptr;
 220:C:/Program Files (x86)/GNU Tools Arm Embedded/version13-3/arm-none-eabi/include/c++/13.3.1/bits\hashtable.h ****       using __value_alloc_traits =
 221:C:/Program Files (x86)/GNU Tools Arm Embedded/version13-3/arm-none-eabi/include/c++/13.3.1/bits\hashtable.h **** 	typename __hashtable_alloc::__value_alloc_traits;
ARM GAS  C:\Users\Owner\AppData\Local\Temp\cctnuIAx.s 			page 6


 222:C:/Program Files (x86)/GNU Tools Arm Embedded/version13-3/arm-none-eabi/include/c++/13.3.1/bits\hashtable.h ****       using __node_alloc_traits =
 223:C:/Program Files (x86)/GNU Tools Arm Embedded/version13-3/arm-none-eabi/include/c++/13.3.1/bits\hashtable.h **** 	typename __hashtable_alloc::__node_alloc_traits;
 224:C:/Program Files (x86)/GNU Tools Arm Embedded/version13-3/arm-none-eabi/include/c++/13.3.1/bits\hashtable.h ****       using __node_base = typename __hashtable_alloc::__node_base;
 225:C:/Program Files (x86)/GNU Tools Arm Embedded/version13-3/arm-none-eabi/include/c++/13.3.1/bits\hashtable.h ****       using __node_base_ptr = typename __hashtable_alloc::__node_base_ptr;
 226:C:/Program Files (x86)/GNU Tools Arm Embedded/version13-3/arm-none-eabi/include/c++/13.3.1/bits\hashtable.h ****       using __buckets_ptr = typename __hashtable_alloc::__buckets_ptr;
 227:C:/Program Files (x86)/GNU Tools Arm Embedded/version13-3/arm-none-eabi/include/c++/13.3.1/bits\hashtable.h **** 
 228:C:/Program Files (x86)/GNU Tools Arm Embedded/version13-3/arm-none-eabi/include/c++/13.3.1/bits\hashtable.h ****       using __insert_base = __detail::_Insert<_Key, _Value, _Alloc, _ExtractKey,
 229:C:/Program Files (x86)/GNU Tools Arm Embedded/version13-3/arm-none-eabi/include/c++/13.3.1/bits\hashtable.h **** 					      _Equal, _Hash,
 230:C:/Program Files (x86)/GNU Tools Arm Embedded/version13-3/arm-none-eabi/include/c++/13.3.1/bits\hashtable.h **** 					      _RangeHash, _Unused,
 231:C:/Program Files (x86)/GNU Tools Arm Embedded/version13-3/arm-none-eabi/include/c++/13.3.1/bits\hashtable.h **** 					      _RehashPolicy, _Traits>;
 232:C:/Program Files (x86)/GNU Tools Arm Embedded/version13-3/arm-none-eabi/include/c++/13.3.1/bits\hashtable.h ****       using __enable_default_ctor
 233:C:/Program Files (x86)/GNU Tools Arm Embedded/version13-3/arm-none-eabi/include/c++/13.3.1/bits\hashtable.h **** 	= _Hashtable_enable_default_ctor<_Equal, _Hash, _Alloc>;
 234:C:/Program Files (x86)/GNU Tools Arm Embedded/version13-3/arm-none-eabi/include/c++/13.3.1/bits\hashtable.h **** 
 235:C:/Program Files (x86)/GNU Tools Arm Embedded/version13-3/arm-none-eabi/include/c++/13.3.1/bits\hashtable.h ****     public:
 236:C:/Program Files (x86)/GNU Tools Arm Embedded/version13-3/arm-none-eabi/include/c++/13.3.1/bits\hashtable.h ****       typedef _Key						key_type;
 237:C:/Program Files (x86)/GNU Tools Arm Embedded/version13-3/arm-none-eabi/include/c++/13.3.1/bits\hashtable.h ****       typedef _Value						value_type;
 238:C:/Program Files (x86)/GNU Tools Arm Embedded/version13-3/arm-none-eabi/include/c++/13.3.1/bits\hashtable.h ****       typedef _Alloc						allocator_type;
 239:C:/Program Files (x86)/GNU Tools Arm Embedded/version13-3/arm-none-eabi/include/c++/13.3.1/bits\hashtable.h ****       typedef _Equal						key_equal;
 240:C:/Program Files (x86)/GNU Tools Arm Embedded/version13-3/arm-none-eabi/include/c++/13.3.1/bits\hashtable.h **** 
 241:C:/Program Files (x86)/GNU Tools Arm Embedded/version13-3/arm-none-eabi/include/c++/13.3.1/bits\hashtable.h ****       // mapped_type, if present, comes from _Map_base.
 242:C:/Program Files (x86)/GNU Tools Arm Embedded/version13-3/arm-none-eabi/include/c++/13.3.1/bits\hashtable.h ****       // hasher, if present, comes from _Hash_code_base/_Hashtable_base.
 243:C:/Program Files (x86)/GNU Tools Arm Embedded/version13-3/arm-none-eabi/include/c++/13.3.1/bits\hashtable.h ****       typedef typename __value_alloc_traits::pointer		pointer;
 244:C:/Program Files (x86)/GNU Tools Arm Embedded/version13-3/arm-none-eabi/include/c++/13.3.1/bits\hashtable.h ****       typedef typename __value_alloc_traits::const_pointer	const_pointer;
 245:C:/Program Files (x86)/GNU Tools Arm Embedded/version13-3/arm-none-eabi/include/c++/13.3.1/bits\hashtable.h ****       typedef value_type&					reference;
 246:C:/Program Files (x86)/GNU Tools Arm Embedded/version13-3/arm-none-eabi/include/c++/13.3.1/bits\hashtable.h ****       typedef const value_type&					const_reference;
 247:C:/Program Files (x86)/GNU Tools Arm Embedded/version13-3/arm-none-eabi/include/c++/13.3.1/bits\hashtable.h **** 
 248:C:/Program Files (x86)/GNU Tools Arm Embedded/version13-3/arm-none-eabi/include/c++/13.3.1/bits\hashtable.h ****       using iterator = typename __insert_base::iterator;
 249:C:/Program Files (x86)/GNU Tools Arm Embedded/version13-3/arm-none-eabi/include/c++/13.3.1/bits\hashtable.h **** 
 250:C:/Program Files (x86)/GNU Tools Arm Embedded/version13-3/arm-none-eabi/include/c++/13.3.1/bits\hashtable.h ****       using const_iterator = typename __insert_base::const_iterator;
 251:C:/Program Files (x86)/GNU Tools Arm Embedded/version13-3/arm-none-eabi/include/c++/13.3.1/bits\hashtable.h **** 
 252:C:/Program Files (x86)/GNU Tools Arm Embedded/version13-3/arm-none-eabi/include/c++/13.3.1/bits\hashtable.h ****       using local_iterator = __detail::_Local_iterator<key_type, _Value,
 253:C:/Program Files (x86)/GNU Tools Arm Embedded/version13-3/arm-none-eabi/include/c++/13.3.1/bits\hashtable.h **** 			_ExtractKey, _Hash, _RangeHash, _Unused,
 254:C:/Program Files (x86)/GNU Tools Arm Embedded/version13-3/arm-none-eabi/include/c++/13.3.1/bits\hashtable.h **** 					     __constant_iterators::value,
 255:C:/Program Files (x86)/GNU Tools Arm Embedded/version13-3/arm-none-eabi/include/c++/13.3.1/bits\hashtable.h **** 					     __hash_cached::value>;
 256:C:/Program Files (x86)/GNU Tools Arm Embedded/version13-3/arm-none-eabi/include/c++/13.3.1/bits\hashtable.h **** 
 257:C:/Program Files (x86)/GNU Tools Arm Embedded/version13-3/arm-none-eabi/include/c++/13.3.1/bits\hashtable.h ****       using const_local_iterator = __detail::_Local_const_iterator<
 258:C:/Program Files (x86)/GNU Tools Arm Embedded/version13-3/arm-none-eabi/include/c++/13.3.1/bits\hashtable.h **** 			key_type, _Value,
 259:C:/Program Files (x86)/GNU Tools Arm Embedded/version13-3/arm-none-eabi/include/c++/13.3.1/bits\hashtable.h **** 			_ExtractKey, _Hash, _RangeHash, _Unused,
 260:C:/Program Files (x86)/GNU Tools Arm Embedded/version13-3/arm-none-eabi/include/c++/13.3.1/bits\hashtable.h **** 			__constant_iterators::value, __hash_cached::value>;
 261:C:/Program Files (x86)/GNU Tools Arm Embedded/version13-3/arm-none-eabi/include/c++/13.3.1/bits\hashtable.h **** 
 262:C:/Program Files (x86)/GNU Tools Arm Embedded/version13-3/arm-none-eabi/include/c++/13.3.1/bits\hashtable.h ****     private:
 263:C:/Program Files (x86)/GNU Tools Arm Embedded/version13-3/arm-none-eabi/include/c++/13.3.1/bits\hashtable.h ****       using __rehash_type = _RehashPolicy;
 264:C:/Program Files (x86)/GNU Tools Arm Embedded/version13-3/arm-none-eabi/include/c++/13.3.1/bits\hashtable.h ****       using __rehash_state = typename __rehash_type::_State;
 265:C:/Program Files (x86)/GNU Tools Arm Embedded/version13-3/arm-none-eabi/include/c++/13.3.1/bits\hashtable.h **** 
 266:C:/Program Files (x86)/GNU Tools Arm Embedded/version13-3/arm-none-eabi/include/c++/13.3.1/bits\hashtable.h ****       using __unique_keys = typename __traits_type::__unique_keys;
 267:C:/Program Files (x86)/GNU Tools Arm Embedded/version13-3/arm-none-eabi/include/c++/13.3.1/bits\hashtable.h **** 
 268:C:/Program Files (x86)/GNU Tools Arm Embedded/version13-3/arm-none-eabi/include/c++/13.3.1/bits\hashtable.h ****       using __hashtable_base = __detail::
 269:C:/Program Files (x86)/GNU Tools Arm Embedded/version13-3/arm-none-eabi/include/c++/13.3.1/bits\hashtable.h **** 	_Hashtable_base<_Key, _Value, _ExtractKey,
 270:C:/Program Files (x86)/GNU Tools Arm Embedded/version13-3/arm-none-eabi/include/c++/13.3.1/bits\hashtable.h **** 			_Equal, _Hash, _RangeHash, _Unused, _Traits>;
 271:C:/Program Files (x86)/GNU Tools Arm Embedded/version13-3/arm-none-eabi/include/c++/13.3.1/bits\hashtable.h **** 
 272:C:/Program Files (x86)/GNU Tools Arm Embedded/version13-3/arm-none-eabi/include/c++/13.3.1/bits\hashtable.h ****       using __hash_code_base =  typename __hashtable_base::__hash_code_base;
 273:C:/Program Files (x86)/GNU Tools Arm Embedded/version13-3/arm-none-eabi/include/c++/13.3.1/bits\hashtable.h ****       using __hash_code =  typename __hashtable_base::__hash_code;
 274:C:/Program Files (x86)/GNU Tools Arm Embedded/version13-3/arm-none-eabi/include/c++/13.3.1/bits\hashtable.h ****       using __ireturn_type = typename __insert_base::__ireturn_type;
 275:C:/Program Files (x86)/GNU Tools Arm Embedded/version13-3/arm-none-eabi/include/c++/13.3.1/bits\hashtable.h **** 
 276:C:/Program Files (x86)/GNU Tools Arm Embedded/version13-3/arm-none-eabi/include/c++/13.3.1/bits\hashtable.h ****       using __map_base = __detail::_Map_base<_Key, _Value, _Alloc, _ExtractKey,
 277:C:/Program Files (x86)/GNU Tools Arm Embedded/version13-3/arm-none-eabi/include/c++/13.3.1/bits\hashtable.h **** 					     _Equal, _Hash, _RangeHash, _Unused,
 278:C:/Program Files (x86)/GNU Tools Arm Embedded/version13-3/arm-none-eabi/include/c++/13.3.1/bits\hashtable.h **** 					     _RehashPolicy, _Traits>;
ARM GAS  C:\Users\Owner\AppData\Local\Temp\cctnuIAx.s 			page 7


 279:C:/Program Files (x86)/GNU Tools Arm Embedded/version13-3/arm-none-eabi/include/c++/13.3.1/bits\hashtable.h **** 
 280:C:/Program Files (x86)/GNU Tools Arm Embedded/version13-3/arm-none-eabi/include/c++/13.3.1/bits\hashtable.h ****       using __rehash_base = __detail::_Rehash_base<_Key, _Value, _Alloc,
 281:C:/Program Files (x86)/GNU Tools Arm Embedded/version13-3/arm-none-eabi/include/c++/13.3.1/bits\hashtable.h **** 						   _ExtractKey, _Equal,
 282:C:/Program Files (x86)/GNU Tools Arm Embedded/version13-3/arm-none-eabi/include/c++/13.3.1/bits\hashtable.h **** 						   _Hash, _RangeHash, _Unused,
 283:C:/Program Files (x86)/GNU Tools Arm Embedded/version13-3/arm-none-eabi/include/c++/13.3.1/bits\hashtable.h **** 						   _RehashPolicy, _Traits>;
 284:C:/Program Files (x86)/GNU Tools Arm Embedded/version13-3/arm-none-eabi/include/c++/13.3.1/bits\hashtable.h **** 
 285:C:/Program Files (x86)/GNU Tools Arm Embedded/version13-3/arm-none-eabi/include/c++/13.3.1/bits\hashtable.h ****       using __eq_base = __detail::_Equality<_Key, _Value, _Alloc, _ExtractKey,
 286:C:/Program Files (x86)/GNU Tools Arm Embedded/version13-3/arm-none-eabi/include/c++/13.3.1/bits\hashtable.h **** 					    _Equal, _Hash, _RangeHash, _Unused,
 287:C:/Program Files (x86)/GNU Tools Arm Embedded/version13-3/arm-none-eabi/include/c++/13.3.1/bits\hashtable.h **** 					    _RehashPolicy, _Traits>;
 288:C:/Program Files (x86)/GNU Tools Arm Embedded/version13-3/arm-none-eabi/include/c++/13.3.1/bits\hashtable.h **** 
 289:C:/Program Files (x86)/GNU Tools Arm Embedded/version13-3/arm-none-eabi/include/c++/13.3.1/bits\hashtable.h ****       using __reuse_or_alloc_node_gen_t =
 290:C:/Program Files (x86)/GNU Tools Arm Embedded/version13-3/arm-none-eabi/include/c++/13.3.1/bits\hashtable.h **** 	__detail::_ReuseOrAllocNode<__node_alloc_type>;
 291:C:/Program Files (x86)/GNU Tools Arm Embedded/version13-3/arm-none-eabi/include/c++/13.3.1/bits\hashtable.h ****       using __alloc_node_gen_t =
 292:C:/Program Files (x86)/GNU Tools Arm Embedded/version13-3/arm-none-eabi/include/c++/13.3.1/bits\hashtable.h **** 	__detail::_AllocNode<__node_alloc_type>;
 293:C:/Program Files (x86)/GNU Tools Arm Embedded/version13-3/arm-none-eabi/include/c++/13.3.1/bits\hashtable.h ****       using __node_builder_t =
 294:C:/Program Files (x86)/GNU Tools Arm Embedded/version13-3/arm-none-eabi/include/c++/13.3.1/bits\hashtable.h **** 	__detail::_NodeBuilder<_ExtractKey>;
 295:C:/Program Files (x86)/GNU Tools Arm Embedded/version13-3/arm-none-eabi/include/c++/13.3.1/bits\hashtable.h **** 
 296:C:/Program Files (x86)/GNU Tools Arm Embedded/version13-3/arm-none-eabi/include/c++/13.3.1/bits\hashtable.h ****       // Simple RAII type for managing a node containing an element
 297:C:/Program Files (x86)/GNU Tools Arm Embedded/version13-3/arm-none-eabi/include/c++/13.3.1/bits\hashtable.h ****       struct _Scoped_node
 298:C:/Program Files (x86)/GNU Tools Arm Embedded/version13-3/arm-none-eabi/include/c++/13.3.1/bits\hashtable.h ****       {
 299:C:/Program Files (x86)/GNU Tools Arm Embedded/version13-3/arm-none-eabi/include/c++/13.3.1/bits\hashtable.h **** 	// Take ownership of a node with a constructed element.
 300:C:/Program Files (x86)/GNU Tools Arm Embedded/version13-3/arm-none-eabi/include/c++/13.3.1/bits\hashtable.h **** 	_Scoped_node(__node_ptr __n, __hashtable_alloc* __h)
 301:C:/Program Files (x86)/GNU Tools Arm Embedded/version13-3/arm-none-eabi/include/c++/13.3.1/bits\hashtable.h **** 	: _M_h(__h), _M_node(__n) { }
 302:C:/Program Files (x86)/GNU Tools Arm Embedded/version13-3/arm-none-eabi/include/c++/13.3.1/bits\hashtable.h **** 
 303:C:/Program Files (x86)/GNU Tools Arm Embedded/version13-3/arm-none-eabi/include/c++/13.3.1/bits\hashtable.h **** 	// Allocate a node and construct an element within it.
 304:C:/Program Files (x86)/GNU Tools Arm Embedded/version13-3/arm-none-eabi/include/c++/13.3.1/bits\hashtable.h **** 	template<typename... _Args>
 305:C:/Program Files (x86)/GNU Tools Arm Embedded/version13-3/arm-none-eabi/include/c++/13.3.1/bits\hashtable.h **** 	  _Scoped_node(__hashtable_alloc* __h, _Args&&... __args)
 306:C:/Program Files (x86)/GNU Tools Arm Embedded/version13-3/arm-none-eabi/include/c++/13.3.1/bits\hashtable.h **** 	  : _M_h(__h),
 307:C:/Program Files (x86)/GNU Tools Arm Embedded/version13-3/arm-none-eabi/include/c++/13.3.1/bits\hashtable.h **** 	    _M_node(__h->_M_allocate_node(std::forward<_Args>(__args)...))
 308:C:/Program Files (x86)/GNU Tools Arm Embedded/version13-3/arm-none-eabi/include/c++/13.3.1/bits\hashtable.h **** 	  { }
 309:C:/Program Files (x86)/GNU Tools Arm Embedded/version13-3/arm-none-eabi/include/c++/13.3.1/bits\hashtable.h **** 
 310:C:/Program Files (x86)/GNU Tools Arm Embedded/version13-3/arm-none-eabi/include/c++/13.3.1/bits\hashtable.h **** 	// Destroy element and deallocate node.
 311:C:/Program Files (x86)/GNU Tools Arm Embedded/version13-3/arm-none-eabi/include/c++/13.3.1/bits\hashtable.h **** 	~_Scoped_node() { if (_M_node) _M_h->_M_deallocate_node(_M_node); };
 312:C:/Program Files (x86)/GNU Tools Arm Embedded/version13-3/arm-none-eabi/include/c++/13.3.1/bits\hashtable.h **** 
 313:C:/Program Files (x86)/GNU Tools Arm Embedded/version13-3/arm-none-eabi/include/c++/13.3.1/bits\hashtable.h **** 	_Scoped_node(const _Scoped_node&) = delete;
 314:C:/Program Files (x86)/GNU Tools Arm Embedded/version13-3/arm-none-eabi/include/c++/13.3.1/bits\hashtable.h **** 	_Scoped_node& operator=(const _Scoped_node&) = delete;
 315:C:/Program Files (x86)/GNU Tools Arm Embedded/version13-3/arm-none-eabi/include/c++/13.3.1/bits\hashtable.h **** 
 316:C:/Program Files (x86)/GNU Tools Arm Embedded/version13-3/arm-none-eabi/include/c++/13.3.1/bits\hashtable.h **** 	__hashtable_alloc* _M_h;
 317:C:/Program Files (x86)/GNU Tools Arm Embedded/version13-3/arm-none-eabi/include/c++/13.3.1/bits\hashtable.h **** 	__node_ptr _M_node;
 318:C:/Program Files (x86)/GNU Tools Arm Embedded/version13-3/arm-none-eabi/include/c++/13.3.1/bits\hashtable.h ****       };
 319:C:/Program Files (x86)/GNU Tools Arm Embedded/version13-3/arm-none-eabi/include/c++/13.3.1/bits\hashtable.h **** 
 320:C:/Program Files (x86)/GNU Tools Arm Embedded/version13-3/arm-none-eabi/include/c++/13.3.1/bits\hashtable.h ****       template<typename _Ht>
 321:C:/Program Files (x86)/GNU Tools Arm Embedded/version13-3/arm-none-eabi/include/c++/13.3.1/bits\hashtable.h **** 	static constexpr
 322:C:/Program Files (x86)/GNU Tools Arm Embedded/version13-3/arm-none-eabi/include/c++/13.3.1/bits\hashtable.h **** 	__conditional_t<std::is_lvalue_reference<_Ht>::value,
 323:C:/Program Files (x86)/GNU Tools Arm Embedded/version13-3/arm-none-eabi/include/c++/13.3.1/bits\hashtable.h **** 			const value_type&, value_type&&>
 324:C:/Program Files (x86)/GNU Tools Arm Embedded/version13-3/arm-none-eabi/include/c++/13.3.1/bits\hashtable.h **** 	__fwd_value_for(value_type& __val) noexcept
 325:C:/Program Files (x86)/GNU Tools Arm Embedded/version13-3/arm-none-eabi/include/c++/13.3.1/bits\hashtable.h **** 	{ return std::move(__val); }
 326:C:/Program Files (x86)/GNU Tools Arm Embedded/version13-3/arm-none-eabi/include/c++/13.3.1/bits\hashtable.h **** 
 327:C:/Program Files (x86)/GNU Tools Arm Embedded/version13-3/arm-none-eabi/include/c++/13.3.1/bits\hashtable.h ****       // Compile-time diagnostics.
 328:C:/Program Files (x86)/GNU Tools Arm Embedded/version13-3/arm-none-eabi/include/c++/13.3.1/bits\hashtable.h **** 
 329:C:/Program Files (x86)/GNU Tools Arm Embedded/version13-3/arm-none-eabi/include/c++/13.3.1/bits\hashtable.h ****       // _Hash_code_base has everything protected, so use this derived type to
 330:C:/Program Files (x86)/GNU Tools Arm Embedded/version13-3/arm-none-eabi/include/c++/13.3.1/bits\hashtable.h ****       // access it.
 331:C:/Program Files (x86)/GNU Tools Arm Embedded/version13-3/arm-none-eabi/include/c++/13.3.1/bits\hashtable.h ****       struct __hash_code_base_access : __hash_code_base
 332:C:/Program Files (x86)/GNU Tools Arm Embedded/version13-3/arm-none-eabi/include/c++/13.3.1/bits\hashtable.h ****       { using __hash_code_base::_M_bucket_index; };
 333:C:/Program Files (x86)/GNU Tools Arm Embedded/version13-3/arm-none-eabi/include/c++/13.3.1/bits\hashtable.h **** 
 334:C:/Program Files (x86)/GNU Tools Arm Embedded/version13-3/arm-none-eabi/include/c++/13.3.1/bits\hashtable.h ****       // To get bucket index we need _RangeHash not to throw.
 335:C:/Program Files (x86)/GNU Tools Arm Embedded/version13-3/arm-none-eabi/include/c++/13.3.1/bits\hashtable.h ****       static_assert(is_nothrow_default_constructible<_RangeHash>::value,
ARM GAS  C:\Users\Owner\AppData\Local\Temp\cctnuIAx.s 			page 8


 336:C:/Program Files (x86)/GNU Tools Arm Embedded/version13-3/arm-none-eabi/include/c++/13.3.1/bits\hashtable.h **** 		    "Functor used to map hash code to bucket index"
 337:C:/Program Files (x86)/GNU Tools Arm Embedded/version13-3/arm-none-eabi/include/c++/13.3.1/bits\hashtable.h **** 		    " must be nothrow default constructible");
 338:C:/Program Files (x86)/GNU Tools Arm Embedded/version13-3/arm-none-eabi/include/c++/13.3.1/bits\hashtable.h ****       static_assert(noexcept(
 339:C:/Program Files (x86)/GNU Tools Arm Embedded/version13-3/arm-none-eabi/include/c++/13.3.1/bits\hashtable.h **** 	std::declval<const _RangeHash&>()((std::size_t)0, (std::size_t)0)),
 340:C:/Program Files (x86)/GNU Tools Arm Embedded/version13-3/arm-none-eabi/include/c++/13.3.1/bits\hashtable.h **** 		    "Functor used to map hash code to bucket index must be"
 341:C:/Program Files (x86)/GNU Tools Arm Embedded/version13-3/arm-none-eabi/include/c++/13.3.1/bits\hashtable.h **** 		    " noexcept");
 342:C:/Program Files (x86)/GNU Tools Arm Embedded/version13-3/arm-none-eabi/include/c++/13.3.1/bits\hashtable.h **** 
 343:C:/Program Files (x86)/GNU Tools Arm Embedded/version13-3/arm-none-eabi/include/c++/13.3.1/bits\hashtable.h ****       // To compute bucket index we also need _ExtratKey not to throw.
 344:C:/Program Files (x86)/GNU Tools Arm Embedded/version13-3/arm-none-eabi/include/c++/13.3.1/bits\hashtable.h ****       static_assert(is_nothrow_default_constructible<_ExtractKey>::value,
 345:C:/Program Files (x86)/GNU Tools Arm Embedded/version13-3/arm-none-eabi/include/c++/13.3.1/bits\hashtable.h **** 		    "_ExtractKey must be nothrow default constructible");
 346:C:/Program Files (x86)/GNU Tools Arm Embedded/version13-3/arm-none-eabi/include/c++/13.3.1/bits\hashtable.h ****       static_assert(noexcept(
 347:C:/Program Files (x86)/GNU Tools Arm Embedded/version13-3/arm-none-eabi/include/c++/13.3.1/bits\hashtable.h **** 	std::declval<const _ExtractKey&>()(std::declval<_Value>())),
 348:C:/Program Files (x86)/GNU Tools Arm Embedded/version13-3/arm-none-eabi/include/c++/13.3.1/bits\hashtable.h **** 		    "_ExtractKey functor must be noexcept invocable");
 349:C:/Program Files (x86)/GNU Tools Arm Embedded/version13-3/arm-none-eabi/include/c++/13.3.1/bits\hashtable.h **** 
 350:C:/Program Files (x86)/GNU Tools Arm Embedded/version13-3/arm-none-eabi/include/c++/13.3.1/bits\hashtable.h ****       template<typename _Keya, typename _Valuea, typename _Alloca,
 351:C:/Program Files (x86)/GNU Tools Arm Embedded/version13-3/arm-none-eabi/include/c++/13.3.1/bits\hashtable.h **** 	       typename _ExtractKeya, typename _Equala,
 352:C:/Program Files (x86)/GNU Tools Arm Embedded/version13-3/arm-none-eabi/include/c++/13.3.1/bits\hashtable.h **** 	       typename _Hasha, typename _RangeHasha, typename _Unuseda,
 353:C:/Program Files (x86)/GNU Tools Arm Embedded/version13-3/arm-none-eabi/include/c++/13.3.1/bits\hashtable.h **** 	       typename _RehashPolicya, typename _Traitsa,
 354:C:/Program Files (x86)/GNU Tools Arm Embedded/version13-3/arm-none-eabi/include/c++/13.3.1/bits\hashtable.h **** 	       bool _Unique_keysa>
 355:C:/Program Files (x86)/GNU Tools Arm Embedded/version13-3/arm-none-eabi/include/c++/13.3.1/bits\hashtable.h **** 	friend struct __detail::_Map_base;
 356:C:/Program Files (x86)/GNU Tools Arm Embedded/version13-3/arm-none-eabi/include/c++/13.3.1/bits\hashtable.h **** 
 357:C:/Program Files (x86)/GNU Tools Arm Embedded/version13-3/arm-none-eabi/include/c++/13.3.1/bits\hashtable.h ****       template<typename _Keya, typename _Valuea, typename _Alloca,
 358:C:/Program Files (x86)/GNU Tools Arm Embedded/version13-3/arm-none-eabi/include/c++/13.3.1/bits\hashtable.h **** 	       typename _ExtractKeya, typename _Equala,
 359:C:/Program Files (x86)/GNU Tools Arm Embedded/version13-3/arm-none-eabi/include/c++/13.3.1/bits\hashtable.h **** 	       typename _Hasha, typename _RangeHasha, typename _Unuseda,
 360:C:/Program Files (x86)/GNU Tools Arm Embedded/version13-3/arm-none-eabi/include/c++/13.3.1/bits\hashtable.h **** 	       typename _RehashPolicya, typename _Traitsa>
 361:C:/Program Files (x86)/GNU Tools Arm Embedded/version13-3/arm-none-eabi/include/c++/13.3.1/bits\hashtable.h **** 	friend struct __detail::_Insert_base;
 362:C:/Program Files (x86)/GNU Tools Arm Embedded/version13-3/arm-none-eabi/include/c++/13.3.1/bits\hashtable.h **** 
 363:C:/Program Files (x86)/GNU Tools Arm Embedded/version13-3/arm-none-eabi/include/c++/13.3.1/bits\hashtable.h ****       template<typename _Keya, typename _Valuea, typename _Alloca,
 364:C:/Program Files (x86)/GNU Tools Arm Embedded/version13-3/arm-none-eabi/include/c++/13.3.1/bits\hashtable.h **** 	       typename _ExtractKeya, typename _Equala,
 365:C:/Program Files (x86)/GNU Tools Arm Embedded/version13-3/arm-none-eabi/include/c++/13.3.1/bits\hashtable.h **** 	       typename _Hasha, typename _RangeHasha, typename _Unuseda,
 366:C:/Program Files (x86)/GNU Tools Arm Embedded/version13-3/arm-none-eabi/include/c++/13.3.1/bits\hashtable.h **** 	       typename _RehashPolicya, typename _Traitsa,
 367:C:/Program Files (x86)/GNU Tools Arm Embedded/version13-3/arm-none-eabi/include/c++/13.3.1/bits\hashtable.h **** 	       bool _Constant_iteratorsa>
 368:C:/Program Files (x86)/GNU Tools Arm Embedded/version13-3/arm-none-eabi/include/c++/13.3.1/bits\hashtable.h **** 	friend struct __detail::_Insert;
 369:C:/Program Files (x86)/GNU Tools Arm Embedded/version13-3/arm-none-eabi/include/c++/13.3.1/bits\hashtable.h **** 
 370:C:/Program Files (x86)/GNU Tools Arm Embedded/version13-3/arm-none-eabi/include/c++/13.3.1/bits\hashtable.h ****       template<typename _Keya, typename _Valuea, typename _Alloca,
 371:C:/Program Files (x86)/GNU Tools Arm Embedded/version13-3/arm-none-eabi/include/c++/13.3.1/bits\hashtable.h **** 	       typename _ExtractKeya, typename _Equala,
 372:C:/Program Files (x86)/GNU Tools Arm Embedded/version13-3/arm-none-eabi/include/c++/13.3.1/bits\hashtable.h **** 	       typename _Hasha, typename _RangeHasha, typename _Unuseda,
 373:C:/Program Files (x86)/GNU Tools Arm Embedded/version13-3/arm-none-eabi/include/c++/13.3.1/bits\hashtable.h **** 	       typename _RehashPolicya, typename _Traitsa,
 374:C:/Program Files (x86)/GNU Tools Arm Embedded/version13-3/arm-none-eabi/include/c++/13.3.1/bits\hashtable.h **** 	       bool _Unique_keysa>
 375:C:/Program Files (x86)/GNU Tools Arm Embedded/version13-3/arm-none-eabi/include/c++/13.3.1/bits\hashtable.h **** 	friend struct __detail::_Equality;
 376:C:/Program Files (x86)/GNU Tools Arm Embedded/version13-3/arm-none-eabi/include/c++/13.3.1/bits\hashtable.h **** 
 377:C:/Program Files (x86)/GNU Tools Arm Embedded/version13-3/arm-none-eabi/include/c++/13.3.1/bits\hashtable.h ****     public:
 378:C:/Program Files (x86)/GNU Tools Arm Embedded/version13-3/arm-none-eabi/include/c++/13.3.1/bits\hashtable.h ****       using size_type = typename __hashtable_base::size_type;
 379:C:/Program Files (x86)/GNU Tools Arm Embedded/version13-3/arm-none-eabi/include/c++/13.3.1/bits\hashtable.h ****       using difference_type = typename __hashtable_base::difference_type;
 380:C:/Program Files (x86)/GNU Tools Arm Embedded/version13-3/arm-none-eabi/include/c++/13.3.1/bits\hashtable.h **** 
 381:C:/Program Files (x86)/GNU Tools Arm Embedded/version13-3/arm-none-eabi/include/c++/13.3.1/bits\hashtable.h **** #if __cplusplus > 201402L
 382:C:/Program Files (x86)/GNU Tools Arm Embedded/version13-3/arm-none-eabi/include/c++/13.3.1/bits\hashtable.h ****       using node_type = _Node_handle<_Key, _Value, __node_alloc_type>;
 383:C:/Program Files (x86)/GNU Tools Arm Embedded/version13-3/arm-none-eabi/include/c++/13.3.1/bits\hashtable.h ****       using insert_return_type = _Node_insert_return<iterator, node_type>;
 384:C:/Program Files (x86)/GNU Tools Arm Embedded/version13-3/arm-none-eabi/include/c++/13.3.1/bits\hashtable.h **** #endif
 385:C:/Program Files (x86)/GNU Tools Arm Embedded/version13-3/arm-none-eabi/include/c++/13.3.1/bits\hashtable.h **** 
 386:C:/Program Files (x86)/GNU Tools Arm Embedded/version13-3/arm-none-eabi/include/c++/13.3.1/bits\hashtable.h ****     private:
 387:C:/Program Files (x86)/GNU Tools Arm Embedded/version13-3/arm-none-eabi/include/c++/13.3.1/bits\hashtable.h ****       __buckets_ptr		_M_buckets		= &_M_single_bucket;
 388:C:/Program Files (x86)/GNU Tools Arm Embedded/version13-3/arm-none-eabi/include/c++/13.3.1/bits\hashtable.h ****       size_type			_M_bucket_count		= 1;
 389:C:/Program Files (x86)/GNU Tools Arm Embedded/version13-3/arm-none-eabi/include/c++/13.3.1/bits\hashtable.h ****       __node_base		_M_before_begin;
 390:C:/Program Files (x86)/GNU Tools Arm Embedded/version13-3/arm-none-eabi/include/c++/13.3.1/bits\hashtable.h ****       size_type			_M_element_count	= 0;
 391:C:/Program Files (x86)/GNU Tools Arm Embedded/version13-3/arm-none-eabi/include/c++/13.3.1/bits\hashtable.h ****       _RehashPolicy		_M_rehash_policy;
 392:C:/Program Files (x86)/GNU Tools Arm Embedded/version13-3/arm-none-eabi/include/c++/13.3.1/bits\hashtable.h **** 
ARM GAS  C:\Users\Owner\AppData\Local\Temp\cctnuIAx.s 			page 9


 393:C:/Program Files (x86)/GNU Tools Arm Embedded/version13-3/arm-none-eabi/include/c++/13.3.1/bits\hashtable.h ****       // A single bucket used when only need for 1 bucket. Especially
 394:C:/Program Files (x86)/GNU Tools Arm Embedded/version13-3/arm-none-eabi/include/c++/13.3.1/bits\hashtable.h ****       // interesting in move semantic to leave hashtable with only 1 bucket
 395:C:/Program Files (x86)/GNU Tools Arm Embedded/version13-3/arm-none-eabi/include/c++/13.3.1/bits\hashtable.h ****       // which is not allocated so that we can have those operations noexcept
 396:C:/Program Files (x86)/GNU Tools Arm Embedded/version13-3/arm-none-eabi/include/c++/13.3.1/bits\hashtable.h ****       // qualified.
 397:C:/Program Files (x86)/GNU Tools Arm Embedded/version13-3/arm-none-eabi/include/c++/13.3.1/bits\hashtable.h ****       // Note that we can't leave hashtable with 0 bucket without adding
 398:C:/Program Files (x86)/GNU Tools Arm Embedded/version13-3/arm-none-eabi/include/c++/13.3.1/bits\hashtable.h ****       // numerous checks in the code to avoid 0 modulus.
 399:C:/Program Files (x86)/GNU Tools Arm Embedded/version13-3/arm-none-eabi/include/c++/13.3.1/bits\hashtable.h ****       __node_base_ptr		_M_single_bucket	= nullptr;
 400:C:/Program Files (x86)/GNU Tools Arm Embedded/version13-3/arm-none-eabi/include/c++/13.3.1/bits\hashtable.h **** 
 401:C:/Program Files (x86)/GNU Tools Arm Embedded/version13-3/arm-none-eabi/include/c++/13.3.1/bits\hashtable.h ****       void
 402:C:/Program Files (x86)/GNU Tools Arm Embedded/version13-3/arm-none-eabi/include/c++/13.3.1/bits\hashtable.h ****       _M_update_bbegin()
 403:C:/Program Files (x86)/GNU Tools Arm Embedded/version13-3/arm-none-eabi/include/c++/13.3.1/bits\hashtable.h ****       {
 404:C:/Program Files (x86)/GNU Tools Arm Embedded/version13-3/arm-none-eabi/include/c++/13.3.1/bits\hashtable.h **** 	if (_M_begin())
 405:C:/Program Files (x86)/GNU Tools Arm Embedded/version13-3/arm-none-eabi/include/c++/13.3.1/bits\hashtable.h **** 	  _M_buckets[_M_bucket_index(*_M_begin())] = &_M_before_begin;
 406:C:/Program Files (x86)/GNU Tools Arm Embedded/version13-3/arm-none-eabi/include/c++/13.3.1/bits\hashtable.h ****       }
 407:C:/Program Files (x86)/GNU Tools Arm Embedded/version13-3/arm-none-eabi/include/c++/13.3.1/bits\hashtable.h **** 
 408:C:/Program Files (x86)/GNU Tools Arm Embedded/version13-3/arm-none-eabi/include/c++/13.3.1/bits\hashtable.h ****       void
 409:C:/Program Files (x86)/GNU Tools Arm Embedded/version13-3/arm-none-eabi/include/c++/13.3.1/bits\hashtable.h ****       _M_update_bbegin(__node_ptr __n)
 410:C:/Program Files (x86)/GNU Tools Arm Embedded/version13-3/arm-none-eabi/include/c++/13.3.1/bits\hashtable.h ****       {
 411:C:/Program Files (x86)/GNU Tools Arm Embedded/version13-3/arm-none-eabi/include/c++/13.3.1/bits\hashtable.h **** 	_M_before_begin._M_nxt = __n;
 412:C:/Program Files (x86)/GNU Tools Arm Embedded/version13-3/arm-none-eabi/include/c++/13.3.1/bits\hashtable.h **** 	_M_update_bbegin();
 413:C:/Program Files (x86)/GNU Tools Arm Embedded/version13-3/arm-none-eabi/include/c++/13.3.1/bits\hashtable.h ****       }
 414:C:/Program Files (x86)/GNU Tools Arm Embedded/version13-3/arm-none-eabi/include/c++/13.3.1/bits\hashtable.h **** 
 415:C:/Program Files (x86)/GNU Tools Arm Embedded/version13-3/arm-none-eabi/include/c++/13.3.1/bits\hashtable.h ****       bool
 416:C:/Program Files (x86)/GNU Tools Arm Embedded/version13-3/arm-none-eabi/include/c++/13.3.1/bits\hashtable.h ****       _M_uses_single_bucket(__buckets_ptr __bkts) const
 417:C:/Program Files (x86)/GNU Tools Arm Embedded/version13-3/arm-none-eabi/include/c++/13.3.1/bits\hashtable.h ****       { return __builtin_expect(__bkts == &_M_single_bucket, false); }
 418:C:/Program Files (x86)/GNU Tools Arm Embedded/version13-3/arm-none-eabi/include/c++/13.3.1/bits\hashtable.h **** 
 419:C:/Program Files (x86)/GNU Tools Arm Embedded/version13-3/arm-none-eabi/include/c++/13.3.1/bits\hashtable.h ****       bool
 420:C:/Program Files (x86)/GNU Tools Arm Embedded/version13-3/arm-none-eabi/include/c++/13.3.1/bits\hashtable.h ****       _M_uses_single_bucket() const
 421:C:/Program Files (x86)/GNU Tools Arm Embedded/version13-3/arm-none-eabi/include/c++/13.3.1/bits\hashtable.h ****       { return _M_uses_single_bucket(_M_buckets); }
 422:C:/Program Files (x86)/GNU Tools Arm Embedded/version13-3/arm-none-eabi/include/c++/13.3.1/bits\hashtable.h **** 
 423:C:/Program Files (x86)/GNU Tools Arm Embedded/version13-3/arm-none-eabi/include/c++/13.3.1/bits\hashtable.h ****       static constexpr size_t
 424:C:/Program Files (x86)/GNU Tools Arm Embedded/version13-3/arm-none-eabi/include/c++/13.3.1/bits\hashtable.h ****       __small_size_threshold() noexcept
 425:C:/Program Files (x86)/GNU Tools Arm Embedded/version13-3/arm-none-eabi/include/c++/13.3.1/bits\hashtable.h ****       {
 426:C:/Program Files (x86)/GNU Tools Arm Embedded/version13-3/arm-none-eabi/include/c++/13.3.1/bits\hashtable.h **** 	return
 427:C:/Program Files (x86)/GNU Tools Arm Embedded/version13-3/arm-none-eabi/include/c++/13.3.1/bits\hashtable.h **** 	  __detail::_Hashtable_hash_traits<_Hash>::__small_size_threshold();
 428:C:/Program Files (x86)/GNU Tools Arm Embedded/version13-3/arm-none-eabi/include/c++/13.3.1/bits\hashtable.h ****       }
 429:C:/Program Files (x86)/GNU Tools Arm Embedded/version13-3/arm-none-eabi/include/c++/13.3.1/bits\hashtable.h **** 
 430:C:/Program Files (x86)/GNU Tools Arm Embedded/version13-3/arm-none-eabi/include/c++/13.3.1/bits\hashtable.h ****       __hashtable_alloc&
 431:C:/Program Files (x86)/GNU Tools Arm Embedded/version13-3/arm-none-eabi/include/c++/13.3.1/bits\hashtable.h ****       _M_base_alloc() { return *this; }
 432:C:/Program Files (x86)/GNU Tools Arm Embedded/version13-3/arm-none-eabi/include/c++/13.3.1/bits\hashtable.h **** 
 433:C:/Program Files (x86)/GNU Tools Arm Embedded/version13-3/arm-none-eabi/include/c++/13.3.1/bits\hashtable.h ****       __buckets_ptr
 434:C:/Program Files (x86)/GNU Tools Arm Embedded/version13-3/arm-none-eabi/include/c++/13.3.1/bits\hashtable.h ****       _M_allocate_buckets(size_type __bkt_count)
 435:C:/Program Files (x86)/GNU Tools Arm Embedded/version13-3/arm-none-eabi/include/c++/13.3.1/bits\hashtable.h ****       {
 436:C:/Program Files (x86)/GNU Tools Arm Embedded/version13-3/arm-none-eabi/include/c++/13.3.1/bits\hashtable.h **** 	if (__builtin_expect(__bkt_count == 1, false))
 437:C:/Program Files (x86)/GNU Tools Arm Embedded/version13-3/arm-none-eabi/include/c++/13.3.1/bits\hashtable.h **** 	  {
 438:C:/Program Files (x86)/GNU Tools Arm Embedded/version13-3/arm-none-eabi/include/c++/13.3.1/bits\hashtable.h **** 	    _M_single_bucket = nullptr;
 439:C:/Program Files (x86)/GNU Tools Arm Embedded/version13-3/arm-none-eabi/include/c++/13.3.1/bits\hashtable.h **** 	    return &_M_single_bucket;
 440:C:/Program Files (x86)/GNU Tools Arm Embedded/version13-3/arm-none-eabi/include/c++/13.3.1/bits\hashtable.h **** 	  }
 441:C:/Program Files (x86)/GNU Tools Arm Embedded/version13-3/arm-none-eabi/include/c++/13.3.1/bits\hashtable.h **** 
 442:C:/Program Files (x86)/GNU Tools Arm Embedded/version13-3/arm-none-eabi/include/c++/13.3.1/bits\hashtable.h **** 	return __hashtable_alloc::_M_allocate_buckets(__bkt_count);
 443:C:/Program Files (x86)/GNU Tools Arm Embedded/version13-3/arm-none-eabi/include/c++/13.3.1/bits\hashtable.h ****       }
 444:C:/Program Files (x86)/GNU Tools Arm Embedded/version13-3/arm-none-eabi/include/c++/13.3.1/bits\hashtable.h **** 
 445:C:/Program Files (x86)/GNU Tools Arm Embedded/version13-3/arm-none-eabi/include/c++/13.3.1/bits\hashtable.h ****       void
 446:C:/Program Files (x86)/GNU Tools Arm Embedded/version13-3/arm-none-eabi/include/c++/13.3.1/bits\hashtable.h ****       _M_deallocate_buckets(__buckets_ptr __bkts, size_type __bkt_count)
 447:C:/Program Files (x86)/GNU Tools Arm Embedded/version13-3/arm-none-eabi/include/c++/13.3.1/bits\hashtable.h ****       {
 448:C:/Program Files (x86)/GNU Tools Arm Embedded/version13-3/arm-none-eabi/include/c++/13.3.1/bits\hashtable.h **** 	if (_M_uses_single_bucket(__bkts))
 449:C:/Program Files (x86)/GNU Tools Arm Embedded/version13-3/arm-none-eabi/include/c++/13.3.1/bits\hashtable.h **** 	  return;
ARM GAS  C:\Users\Owner\AppData\Local\Temp\cctnuIAx.s 			page 10


 450:C:/Program Files (x86)/GNU Tools Arm Embedded/version13-3/arm-none-eabi/include/c++/13.3.1/bits\hashtable.h **** 
 451:C:/Program Files (x86)/GNU Tools Arm Embedded/version13-3/arm-none-eabi/include/c++/13.3.1/bits\hashtable.h **** 	__hashtable_alloc::_M_deallocate_buckets(__bkts, __bkt_count);
 452:C:/Program Files (x86)/GNU Tools Arm Embedded/version13-3/arm-none-eabi/include/c++/13.3.1/bits\hashtable.h ****       }
 453:C:/Program Files (x86)/GNU Tools Arm Embedded/version13-3/arm-none-eabi/include/c++/13.3.1/bits\hashtable.h **** 
 454:C:/Program Files (x86)/GNU Tools Arm Embedded/version13-3/arm-none-eabi/include/c++/13.3.1/bits\hashtable.h ****       void
 455:C:/Program Files (x86)/GNU Tools Arm Embedded/version13-3/arm-none-eabi/include/c++/13.3.1/bits\hashtable.h ****       _M_deallocate_buckets()
 456:C:/Program Files (x86)/GNU Tools Arm Embedded/version13-3/arm-none-eabi/include/c++/13.3.1/bits\hashtable.h ****       { _M_deallocate_buckets(_M_buckets, _M_bucket_count); }
 457:C:/Program Files (x86)/GNU Tools Arm Embedded/version13-3/arm-none-eabi/include/c++/13.3.1/bits\hashtable.h **** 
 458:C:/Program Files (x86)/GNU Tools Arm Embedded/version13-3/arm-none-eabi/include/c++/13.3.1/bits\hashtable.h ****       // Gets bucket begin, deals with the fact that non-empty buckets contain
 459:C:/Program Files (x86)/GNU Tools Arm Embedded/version13-3/arm-none-eabi/include/c++/13.3.1/bits\hashtable.h ****       // their before begin node.
 460:C:/Program Files (x86)/GNU Tools Arm Embedded/version13-3/arm-none-eabi/include/c++/13.3.1/bits\hashtable.h ****       __node_ptr
 461:C:/Program Files (x86)/GNU Tools Arm Embedded/version13-3/arm-none-eabi/include/c++/13.3.1/bits\hashtable.h ****       _M_bucket_begin(size_type __bkt) const;
 462:C:/Program Files (x86)/GNU Tools Arm Embedded/version13-3/arm-none-eabi/include/c++/13.3.1/bits\hashtable.h **** 
 463:C:/Program Files (x86)/GNU Tools Arm Embedded/version13-3/arm-none-eabi/include/c++/13.3.1/bits\hashtable.h ****       __node_ptr
 464:C:/Program Files (x86)/GNU Tools Arm Embedded/version13-3/arm-none-eabi/include/c++/13.3.1/bits\hashtable.h ****       _M_begin() const
 465:C:/Program Files (x86)/GNU Tools Arm Embedded/version13-3/arm-none-eabi/include/c++/13.3.1/bits\hashtable.h ****       { return static_cast<__node_ptr>(_M_before_begin._M_nxt); }
 466:C:/Program Files (x86)/GNU Tools Arm Embedded/version13-3/arm-none-eabi/include/c++/13.3.1/bits\hashtable.h **** 
 467:C:/Program Files (x86)/GNU Tools Arm Embedded/version13-3/arm-none-eabi/include/c++/13.3.1/bits\hashtable.h ****       // Assign *this using another _Hashtable instance. Whether elements
 468:C:/Program Files (x86)/GNU Tools Arm Embedded/version13-3/arm-none-eabi/include/c++/13.3.1/bits\hashtable.h ****       // are copied or moved depends on the _Ht reference.
 469:C:/Program Files (x86)/GNU Tools Arm Embedded/version13-3/arm-none-eabi/include/c++/13.3.1/bits\hashtable.h ****       template<typename _Ht>
 470:C:/Program Files (x86)/GNU Tools Arm Embedded/version13-3/arm-none-eabi/include/c++/13.3.1/bits\hashtable.h **** 	void
 471:C:/Program Files (x86)/GNU Tools Arm Embedded/version13-3/arm-none-eabi/include/c++/13.3.1/bits\hashtable.h **** 	_M_assign_elements(_Ht&&);
 472:C:/Program Files (x86)/GNU Tools Arm Embedded/version13-3/arm-none-eabi/include/c++/13.3.1/bits\hashtable.h **** 
 473:C:/Program Files (x86)/GNU Tools Arm Embedded/version13-3/arm-none-eabi/include/c++/13.3.1/bits\hashtable.h ****       template<typename _Ht, typename _NodeGenerator>
 474:C:/Program Files (x86)/GNU Tools Arm Embedded/version13-3/arm-none-eabi/include/c++/13.3.1/bits\hashtable.h **** 	void
 475:C:/Program Files (x86)/GNU Tools Arm Embedded/version13-3/arm-none-eabi/include/c++/13.3.1/bits\hashtable.h **** 	_M_assign(_Ht&&, const _NodeGenerator&);
 476:C:/Program Files (x86)/GNU Tools Arm Embedded/version13-3/arm-none-eabi/include/c++/13.3.1/bits\hashtable.h **** 
 477:C:/Program Files (x86)/GNU Tools Arm Embedded/version13-3/arm-none-eabi/include/c++/13.3.1/bits\hashtable.h ****       void
 478:C:/Program Files (x86)/GNU Tools Arm Embedded/version13-3/arm-none-eabi/include/c++/13.3.1/bits\hashtable.h ****       _M_move_assign(_Hashtable&&, true_type);
 479:C:/Program Files (x86)/GNU Tools Arm Embedded/version13-3/arm-none-eabi/include/c++/13.3.1/bits\hashtable.h **** 
 480:C:/Program Files (x86)/GNU Tools Arm Embedded/version13-3/arm-none-eabi/include/c++/13.3.1/bits\hashtable.h ****       void
 481:C:/Program Files (x86)/GNU Tools Arm Embedded/version13-3/arm-none-eabi/include/c++/13.3.1/bits\hashtable.h ****       _M_move_assign(_Hashtable&&, false_type);
 482:C:/Program Files (x86)/GNU Tools Arm Embedded/version13-3/arm-none-eabi/include/c++/13.3.1/bits\hashtable.h **** 
 483:C:/Program Files (x86)/GNU Tools Arm Embedded/version13-3/arm-none-eabi/include/c++/13.3.1/bits\hashtable.h ****       void
 484:C:/Program Files (x86)/GNU Tools Arm Embedded/version13-3/arm-none-eabi/include/c++/13.3.1/bits\hashtable.h ****       _M_reset() noexcept;
 485:C:/Program Files (x86)/GNU Tools Arm Embedded/version13-3/arm-none-eabi/include/c++/13.3.1/bits\hashtable.h **** 
 486:C:/Program Files (x86)/GNU Tools Arm Embedded/version13-3/arm-none-eabi/include/c++/13.3.1/bits\hashtable.h ****       _Hashtable(const _Hash& __h, const _Equal& __eq,
 487:C:/Program Files (x86)/GNU Tools Arm Embedded/version13-3/arm-none-eabi/include/c++/13.3.1/bits\hashtable.h **** 		 const allocator_type& __a)
 488:C:/Program Files (x86)/GNU Tools Arm Embedded/version13-3/arm-none-eabi/include/c++/13.3.1/bits\hashtable.h ****       : __hashtable_base(__h, __eq),
 489:C:/Program Files (x86)/GNU Tools Arm Embedded/version13-3/arm-none-eabi/include/c++/13.3.1/bits\hashtable.h **** 	__hashtable_alloc(__node_alloc_type(__a)),
 490:C:/Program Files (x86)/GNU Tools Arm Embedded/version13-3/arm-none-eabi/include/c++/13.3.1/bits\hashtable.h **** 	__enable_default_ctor(_Enable_default_constructor_tag{})
 491:C:/Program Files (x86)/GNU Tools Arm Embedded/version13-3/arm-none-eabi/include/c++/13.3.1/bits\hashtable.h ****       { }
 492:C:/Program Files (x86)/GNU Tools Arm Embedded/version13-3/arm-none-eabi/include/c++/13.3.1/bits\hashtable.h **** 
 493:C:/Program Files (x86)/GNU Tools Arm Embedded/version13-3/arm-none-eabi/include/c++/13.3.1/bits\hashtable.h ****       template<bool _No_realloc = true>
 494:C:/Program Files (x86)/GNU Tools Arm Embedded/version13-3/arm-none-eabi/include/c++/13.3.1/bits\hashtable.h **** 	static constexpr bool
 495:C:/Program Files (x86)/GNU Tools Arm Embedded/version13-3/arm-none-eabi/include/c++/13.3.1/bits\hashtable.h **** 	_S_nothrow_move()
 496:C:/Program Files (x86)/GNU Tools Arm Embedded/version13-3/arm-none-eabi/include/c++/13.3.1/bits\hashtable.h **** 	{
 497:C:/Program Files (x86)/GNU Tools Arm Embedded/version13-3/arm-none-eabi/include/c++/13.3.1/bits\hashtable.h **** #if __cplusplus <= 201402L
 498:C:/Program Files (x86)/GNU Tools Arm Embedded/version13-3/arm-none-eabi/include/c++/13.3.1/bits\hashtable.h **** 	  return __and_<__bool_constant<_No_realloc>,
 499:C:/Program Files (x86)/GNU Tools Arm Embedded/version13-3/arm-none-eabi/include/c++/13.3.1/bits\hashtable.h **** 			is_nothrow_copy_constructible<_Hash>,
 500:C:/Program Files (x86)/GNU Tools Arm Embedded/version13-3/arm-none-eabi/include/c++/13.3.1/bits\hashtable.h **** 			is_nothrow_copy_constructible<_Equal>>::value;
 501:C:/Program Files (x86)/GNU Tools Arm Embedded/version13-3/arm-none-eabi/include/c++/13.3.1/bits\hashtable.h **** #else
 502:C:/Program Files (x86)/GNU Tools Arm Embedded/version13-3/arm-none-eabi/include/c++/13.3.1/bits\hashtable.h **** 	  if constexpr (_No_realloc)
 503:C:/Program Files (x86)/GNU Tools Arm Embedded/version13-3/arm-none-eabi/include/c++/13.3.1/bits\hashtable.h **** 	    if constexpr (is_nothrow_copy_constructible<_Hash>())
 504:C:/Program Files (x86)/GNU Tools Arm Embedded/version13-3/arm-none-eabi/include/c++/13.3.1/bits\hashtable.h **** 	      return is_nothrow_copy_constructible<_Equal>();
 505:C:/Program Files (x86)/GNU Tools Arm Embedded/version13-3/arm-none-eabi/include/c++/13.3.1/bits\hashtable.h **** 	  return false;
 506:C:/Program Files (x86)/GNU Tools Arm Embedded/version13-3/arm-none-eabi/include/c++/13.3.1/bits\hashtable.h **** #endif
ARM GAS  C:\Users\Owner\AppData\Local\Temp\cctnuIAx.s 			page 11


 507:C:/Program Files (x86)/GNU Tools Arm Embedded/version13-3/arm-none-eabi/include/c++/13.3.1/bits\hashtable.h **** 	}
 508:C:/Program Files (x86)/GNU Tools Arm Embedded/version13-3/arm-none-eabi/include/c++/13.3.1/bits\hashtable.h **** 
 509:C:/Program Files (x86)/GNU Tools Arm Embedded/version13-3/arm-none-eabi/include/c++/13.3.1/bits\hashtable.h ****       _Hashtable(_Hashtable&& __ht, __node_alloc_type&& __a,
 510:C:/Program Files (x86)/GNU Tools Arm Embedded/version13-3/arm-none-eabi/include/c++/13.3.1/bits\hashtable.h **** 		 true_type /* alloc always equal */)
 511:C:/Program Files (x86)/GNU Tools Arm Embedded/version13-3/arm-none-eabi/include/c++/13.3.1/bits\hashtable.h **** 	noexcept(_S_nothrow_move());
 512:C:/Program Files (x86)/GNU Tools Arm Embedded/version13-3/arm-none-eabi/include/c++/13.3.1/bits\hashtable.h **** 
 513:C:/Program Files (x86)/GNU Tools Arm Embedded/version13-3/arm-none-eabi/include/c++/13.3.1/bits\hashtable.h ****       _Hashtable(_Hashtable&&, __node_alloc_type&&,
 514:C:/Program Files (x86)/GNU Tools Arm Embedded/version13-3/arm-none-eabi/include/c++/13.3.1/bits\hashtable.h **** 		 false_type /* alloc always equal */);
 515:C:/Program Files (x86)/GNU Tools Arm Embedded/version13-3/arm-none-eabi/include/c++/13.3.1/bits\hashtable.h **** 
 516:C:/Program Files (x86)/GNU Tools Arm Embedded/version13-3/arm-none-eabi/include/c++/13.3.1/bits\hashtable.h ****       template<typename _InputIterator>
 517:C:/Program Files (x86)/GNU Tools Arm Embedded/version13-3/arm-none-eabi/include/c++/13.3.1/bits\hashtable.h **** 	_Hashtable(_InputIterator __first, _InputIterator __last,
 518:C:/Program Files (x86)/GNU Tools Arm Embedded/version13-3/arm-none-eabi/include/c++/13.3.1/bits\hashtable.h **** 		   size_type __bkt_count_hint,
 519:C:/Program Files (x86)/GNU Tools Arm Embedded/version13-3/arm-none-eabi/include/c++/13.3.1/bits\hashtable.h **** 		   const _Hash&, const _Equal&, const allocator_type&,
 520:C:/Program Files (x86)/GNU Tools Arm Embedded/version13-3/arm-none-eabi/include/c++/13.3.1/bits\hashtable.h **** 		   true_type __uks);
 521:C:/Program Files (x86)/GNU Tools Arm Embedded/version13-3/arm-none-eabi/include/c++/13.3.1/bits\hashtable.h **** 
 522:C:/Program Files (x86)/GNU Tools Arm Embedded/version13-3/arm-none-eabi/include/c++/13.3.1/bits\hashtable.h ****       template<typename _InputIterator>
 523:C:/Program Files (x86)/GNU Tools Arm Embedded/version13-3/arm-none-eabi/include/c++/13.3.1/bits\hashtable.h **** 	_Hashtable(_InputIterator __first, _InputIterator __last,
 524:C:/Program Files (x86)/GNU Tools Arm Embedded/version13-3/arm-none-eabi/include/c++/13.3.1/bits\hashtable.h **** 		   size_type __bkt_count_hint,
 525:C:/Program Files (x86)/GNU Tools Arm Embedded/version13-3/arm-none-eabi/include/c++/13.3.1/bits\hashtable.h **** 		   const _Hash&, const _Equal&, const allocator_type&,
 526:C:/Program Files (x86)/GNU Tools Arm Embedded/version13-3/arm-none-eabi/include/c++/13.3.1/bits\hashtable.h **** 		   false_type __uks);
 527:C:/Program Files (x86)/GNU Tools Arm Embedded/version13-3/arm-none-eabi/include/c++/13.3.1/bits\hashtable.h **** 
 528:C:/Program Files (x86)/GNU Tools Arm Embedded/version13-3/arm-none-eabi/include/c++/13.3.1/bits\hashtable.h ****     public:
 529:C:/Program Files (x86)/GNU Tools Arm Embedded/version13-3/arm-none-eabi/include/c++/13.3.1/bits\hashtable.h ****       // Constructor, destructor, assignment, swap
 530:C:/Program Files (x86)/GNU Tools Arm Embedded/version13-3/arm-none-eabi/include/c++/13.3.1/bits\hashtable.h ****       _Hashtable() = default;
  54              		.loc 2 530 7 discriminator 2 view .LVU2
  55 0004 0123     		movs	r3, #1
  56              	.LBB3788:
  57              	.LBB3789:
  58              		.file 3 "C:/Program Files (x86)/GNU Tools Arm Embedded/version13-3/arm-none-eabi/include/c++/13.3.
   1:C:/Program Files (x86)/GNU Tools Arm Embedded/version13-3/arm-none-eabi/include/c++/13.3.1/bits\hashtable_policy.h **** // Internal policy header for unordered_set and unordered_map -*- C++ -*-
   2:C:/Program Files (x86)/GNU Tools Arm Embedded/version13-3/arm-none-eabi/include/c++/13.3.1/bits\hashtable_policy.h **** 
   3:C:/Program Files (x86)/GNU Tools Arm Embedded/version13-3/arm-none-eabi/include/c++/13.3.1/bits\hashtable_policy.h **** // Copyright (C) 2010-2023 Free Software Foundation, Inc.
   4:C:/Program Files (x86)/GNU Tools Arm Embedded/version13-3/arm-none-eabi/include/c++/13.3.1/bits\hashtable_policy.h **** //
   5:C:/Program Files (x86)/GNU Tools Arm Embedded/version13-3/arm-none-eabi/include/c++/13.3.1/bits\hashtable_policy.h **** // This file is part of the GNU ISO C++ Library.  This library is free
   6:C:/Program Files (x86)/GNU Tools Arm Embedded/version13-3/arm-none-eabi/include/c++/13.3.1/bits\hashtable_policy.h **** // software; you can redistribute it and/or modify it under the
   7:C:/Program Files (x86)/GNU Tools Arm Embedded/version13-3/arm-none-eabi/include/c++/13.3.1/bits\hashtable_policy.h **** // terms of the GNU General Public License as published by the
   8:C:/Program Files (x86)/GNU Tools Arm Embedded/version13-3/arm-none-eabi/include/c++/13.3.1/bits\hashtable_policy.h **** // Free Software Foundation; either version 3, or (at your option)
   9:C:/Program Files (x86)/GNU Tools Arm Embedded/version13-3/arm-none-eabi/include/c++/13.3.1/bits\hashtable_policy.h **** // any later version.
  10:C:/Program Files (x86)/GNU Tools Arm Embedded/version13-3/arm-none-eabi/include/c++/13.3.1/bits\hashtable_policy.h **** 
  11:C:/Program Files (x86)/GNU Tools Arm Embedded/version13-3/arm-none-eabi/include/c++/13.3.1/bits\hashtable_policy.h **** // This library is distributed in the hope that it will be useful,
  12:C:/Program Files (x86)/GNU Tools Arm Embedded/version13-3/arm-none-eabi/include/c++/13.3.1/bits\hashtable_policy.h **** // but WITHOUT ANY WARRANTY; without even the implied warranty of
  13:C:/Program Files (x86)/GNU Tools Arm Embedded/version13-3/arm-none-eabi/include/c++/13.3.1/bits\hashtable_policy.h **** // MERCHANTABILITY or FITNESS FOR A PARTICULAR PURPOSE.  See the
  14:C:/Program Files (x86)/GNU Tools Arm Embedded/version13-3/arm-none-eabi/include/c++/13.3.1/bits\hashtable_policy.h **** // GNU General Public License for more details.
  15:C:/Program Files (x86)/GNU Tools Arm Embedded/version13-3/arm-none-eabi/include/c++/13.3.1/bits\hashtable_policy.h **** 
  16:C:/Program Files (x86)/GNU Tools Arm Embedded/version13-3/arm-none-eabi/include/c++/13.3.1/bits\hashtable_policy.h **** // Under Section 7 of GPL version 3, you are granted additional
  17:C:/Program Files (x86)/GNU Tools Arm Embedded/version13-3/arm-none-eabi/include/c++/13.3.1/bits\hashtable_policy.h **** // permissions described in the GCC Runtime Library Exception, version
  18:C:/Program Files (x86)/GNU Tools Arm Embedded/version13-3/arm-none-eabi/include/c++/13.3.1/bits\hashtable_policy.h **** // 3.1, as published by the Free Software Foundation.
  19:C:/Program Files (x86)/GNU Tools Arm Embedded/version13-3/arm-none-eabi/include/c++/13.3.1/bits\hashtable_policy.h **** 
  20:C:/Program Files (x86)/GNU Tools Arm Embedded/version13-3/arm-none-eabi/include/c++/13.3.1/bits\hashtable_policy.h **** // You should have received a copy of the GNU General Public License and
  21:C:/Program Files (x86)/GNU Tools Arm Embedded/version13-3/arm-none-eabi/include/c++/13.3.1/bits\hashtable_policy.h **** // a copy of the GCC Runtime Library Exception along with this program;
  22:C:/Program Files (x86)/GNU Tools Arm Embedded/version13-3/arm-none-eabi/include/c++/13.3.1/bits\hashtable_policy.h **** // see the files COPYING3 and COPYING.RUNTIME respectively.  If not, see
  23:C:/Program Files (x86)/GNU Tools Arm Embedded/version13-3/arm-none-eabi/include/c++/13.3.1/bits\hashtable_policy.h **** // <http://www.gnu.org/licenses/>.
  24:C:/Program Files (x86)/GNU Tools Arm Embedded/version13-3/arm-none-eabi/include/c++/13.3.1/bits\hashtable_policy.h **** 
  25:C:/Program Files (x86)/GNU Tools Arm Embedded/version13-3/arm-none-eabi/include/c++/13.3.1/bits\hashtable_policy.h **** /** @file bits/hashtable_policy.h
  26:C:/Program Files (x86)/GNU Tools Arm Embedded/version13-3/arm-none-eabi/include/c++/13.3.1/bits\hashtable_policy.h ****  *  This is an internal header file, included by other library headers.
  27:C:/Program Files (x86)/GNU Tools Arm Embedded/version13-3/arm-none-eabi/include/c++/13.3.1/bits\hashtable_policy.h ****  *  Do not attempt to use it directly.
  28:C:/Program Files (x86)/GNU Tools Arm Embedded/version13-3/arm-none-eabi/include/c++/13.3.1/bits\hashtable_policy.h ****  *  @headername{unordered_map,unordered_set}
ARM GAS  C:\Users\Owner\AppData\Local\Temp\cctnuIAx.s 			page 12


  29:C:/Program Files (x86)/GNU Tools Arm Embedded/version13-3/arm-none-eabi/include/c++/13.3.1/bits\hashtable_policy.h ****  */
  30:C:/Program Files (x86)/GNU Tools Arm Embedded/version13-3/arm-none-eabi/include/c++/13.3.1/bits\hashtable_policy.h **** 
  31:C:/Program Files (x86)/GNU Tools Arm Embedded/version13-3/arm-none-eabi/include/c++/13.3.1/bits\hashtable_policy.h **** #ifndef _HASHTABLE_POLICY_H
  32:C:/Program Files (x86)/GNU Tools Arm Embedded/version13-3/arm-none-eabi/include/c++/13.3.1/bits\hashtable_policy.h **** #define _HASHTABLE_POLICY_H 1
  33:C:/Program Files (x86)/GNU Tools Arm Embedded/version13-3/arm-none-eabi/include/c++/13.3.1/bits\hashtable_policy.h **** 
  34:C:/Program Files (x86)/GNU Tools Arm Embedded/version13-3/arm-none-eabi/include/c++/13.3.1/bits\hashtable_policy.h **** #include <tuple>		// for std::tuple, std::forward_as_tuple
  35:C:/Program Files (x86)/GNU Tools Arm Embedded/version13-3/arm-none-eabi/include/c++/13.3.1/bits\hashtable_policy.h **** #include <bits/functional_hash.h> // for __is_fast_hash
  36:C:/Program Files (x86)/GNU Tools Arm Embedded/version13-3/arm-none-eabi/include/c++/13.3.1/bits\hashtable_policy.h **** #include <bits/stl_algobase.h>	// for std::min, std::is_permutation.
  37:C:/Program Files (x86)/GNU Tools Arm Embedded/version13-3/arm-none-eabi/include/c++/13.3.1/bits\hashtable_policy.h **** #include <bits/stl_pair.h>	// for std::pair
  38:C:/Program Files (x86)/GNU Tools Arm Embedded/version13-3/arm-none-eabi/include/c++/13.3.1/bits\hashtable_policy.h **** #include <ext/aligned_buffer.h>	// for __gnu_cxx::__aligned_buffer
  39:C:/Program Files (x86)/GNU Tools Arm Embedded/version13-3/arm-none-eabi/include/c++/13.3.1/bits\hashtable_policy.h **** #include <ext/alloc_traits.h>	// for std::__alloc_rebind
  40:C:/Program Files (x86)/GNU Tools Arm Embedded/version13-3/arm-none-eabi/include/c++/13.3.1/bits\hashtable_policy.h **** #include <ext/numeric_traits.h>	// for __gnu_cxx::__int_traits
  41:C:/Program Files (x86)/GNU Tools Arm Embedded/version13-3/arm-none-eabi/include/c++/13.3.1/bits\hashtable_policy.h **** 
  42:C:/Program Files (x86)/GNU Tools Arm Embedded/version13-3/arm-none-eabi/include/c++/13.3.1/bits\hashtable_policy.h **** namespace std _GLIBCXX_VISIBILITY(default)
  43:C:/Program Files (x86)/GNU Tools Arm Embedded/version13-3/arm-none-eabi/include/c++/13.3.1/bits\hashtable_policy.h **** {
  44:C:/Program Files (x86)/GNU Tools Arm Embedded/version13-3/arm-none-eabi/include/c++/13.3.1/bits\hashtable_policy.h **** _GLIBCXX_BEGIN_NAMESPACE_VERSION
  45:C:/Program Files (x86)/GNU Tools Arm Embedded/version13-3/arm-none-eabi/include/c++/13.3.1/bits\hashtable_policy.h **** /// @cond undocumented
  46:C:/Program Files (x86)/GNU Tools Arm Embedded/version13-3/arm-none-eabi/include/c++/13.3.1/bits\hashtable_policy.h **** 
  47:C:/Program Files (x86)/GNU Tools Arm Embedded/version13-3/arm-none-eabi/include/c++/13.3.1/bits\hashtable_policy.h ****   template<typename _Key, typename _Value, typename _Alloc,
  48:C:/Program Files (x86)/GNU Tools Arm Embedded/version13-3/arm-none-eabi/include/c++/13.3.1/bits\hashtable_policy.h **** 	   typename _ExtractKey, typename _Equal,
  49:C:/Program Files (x86)/GNU Tools Arm Embedded/version13-3/arm-none-eabi/include/c++/13.3.1/bits\hashtable_policy.h **** 	   typename _Hash, typename _RangeHash, typename _Unused,
  50:C:/Program Files (x86)/GNU Tools Arm Embedded/version13-3/arm-none-eabi/include/c++/13.3.1/bits\hashtable_policy.h **** 	   typename _RehashPolicy, typename _Traits>
  51:C:/Program Files (x86)/GNU Tools Arm Embedded/version13-3/arm-none-eabi/include/c++/13.3.1/bits\hashtable_policy.h ****     class _Hashtable;
  52:C:/Program Files (x86)/GNU Tools Arm Embedded/version13-3/arm-none-eabi/include/c++/13.3.1/bits\hashtable_policy.h **** 
  53:C:/Program Files (x86)/GNU Tools Arm Embedded/version13-3/arm-none-eabi/include/c++/13.3.1/bits\hashtable_policy.h **** namespace __detail
  54:C:/Program Files (x86)/GNU Tools Arm Embedded/version13-3/arm-none-eabi/include/c++/13.3.1/bits\hashtable_policy.h **** {
  55:C:/Program Files (x86)/GNU Tools Arm Embedded/version13-3/arm-none-eabi/include/c++/13.3.1/bits\hashtable_policy.h ****   /**
  56:C:/Program Files (x86)/GNU Tools Arm Embedded/version13-3/arm-none-eabi/include/c++/13.3.1/bits\hashtable_policy.h ****    *  @defgroup hashtable-detail Base and Implementation Classes
  57:C:/Program Files (x86)/GNU Tools Arm Embedded/version13-3/arm-none-eabi/include/c++/13.3.1/bits\hashtable_policy.h ****    *  @ingroup unordered_associative_containers
  58:C:/Program Files (x86)/GNU Tools Arm Embedded/version13-3/arm-none-eabi/include/c++/13.3.1/bits\hashtable_policy.h ****    *  @{
  59:C:/Program Files (x86)/GNU Tools Arm Embedded/version13-3/arm-none-eabi/include/c++/13.3.1/bits\hashtable_policy.h ****    */
  60:C:/Program Files (x86)/GNU Tools Arm Embedded/version13-3/arm-none-eabi/include/c++/13.3.1/bits\hashtable_policy.h ****   template<typename _Key, typename _Value, typename _ExtractKey,
  61:C:/Program Files (x86)/GNU Tools Arm Embedded/version13-3/arm-none-eabi/include/c++/13.3.1/bits\hashtable_policy.h **** 	   typename _Equal, typename _Hash, typename _RangeHash,
  62:C:/Program Files (x86)/GNU Tools Arm Embedded/version13-3/arm-none-eabi/include/c++/13.3.1/bits\hashtable_policy.h **** 	   typename _Unused, typename _Traits>
  63:C:/Program Files (x86)/GNU Tools Arm Embedded/version13-3/arm-none-eabi/include/c++/13.3.1/bits\hashtable_policy.h ****     struct _Hashtable_base;
  64:C:/Program Files (x86)/GNU Tools Arm Embedded/version13-3/arm-none-eabi/include/c++/13.3.1/bits\hashtable_policy.h **** 
  65:C:/Program Files (x86)/GNU Tools Arm Embedded/version13-3/arm-none-eabi/include/c++/13.3.1/bits\hashtable_policy.h ****   // Helper function: return distance(first, last) for forward
  66:C:/Program Files (x86)/GNU Tools Arm Embedded/version13-3/arm-none-eabi/include/c++/13.3.1/bits\hashtable_policy.h ****   // iterators, or 0/1 for input iterators.
  67:C:/Program Files (x86)/GNU Tools Arm Embedded/version13-3/arm-none-eabi/include/c++/13.3.1/bits\hashtable_policy.h ****   template<typename _Iterator>
  68:C:/Program Files (x86)/GNU Tools Arm Embedded/version13-3/arm-none-eabi/include/c++/13.3.1/bits\hashtable_policy.h ****     inline typename std::iterator_traits<_Iterator>::difference_type
  69:C:/Program Files (x86)/GNU Tools Arm Embedded/version13-3/arm-none-eabi/include/c++/13.3.1/bits\hashtable_policy.h ****     __distance_fw(_Iterator __first, _Iterator __last,
  70:C:/Program Files (x86)/GNU Tools Arm Embedded/version13-3/arm-none-eabi/include/c++/13.3.1/bits\hashtable_policy.h **** 		  std::input_iterator_tag)
  71:C:/Program Files (x86)/GNU Tools Arm Embedded/version13-3/arm-none-eabi/include/c++/13.3.1/bits\hashtable_policy.h ****     { return __first != __last ? 1 : 0; }
  72:C:/Program Files (x86)/GNU Tools Arm Embedded/version13-3/arm-none-eabi/include/c++/13.3.1/bits\hashtable_policy.h **** 
  73:C:/Program Files (x86)/GNU Tools Arm Embedded/version13-3/arm-none-eabi/include/c++/13.3.1/bits\hashtable_policy.h ****   template<typename _Iterator>
  74:C:/Program Files (x86)/GNU Tools Arm Embedded/version13-3/arm-none-eabi/include/c++/13.3.1/bits\hashtable_policy.h ****     inline typename std::iterator_traits<_Iterator>::difference_type
  75:C:/Program Files (x86)/GNU Tools Arm Embedded/version13-3/arm-none-eabi/include/c++/13.3.1/bits\hashtable_policy.h ****     __distance_fw(_Iterator __first, _Iterator __last,
  76:C:/Program Files (x86)/GNU Tools Arm Embedded/version13-3/arm-none-eabi/include/c++/13.3.1/bits\hashtable_policy.h **** 		  std::forward_iterator_tag)
  77:C:/Program Files (x86)/GNU Tools Arm Embedded/version13-3/arm-none-eabi/include/c++/13.3.1/bits\hashtable_policy.h ****     { return std::distance(__first, __last); }
  78:C:/Program Files (x86)/GNU Tools Arm Embedded/version13-3/arm-none-eabi/include/c++/13.3.1/bits\hashtable_policy.h **** 
  79:C:/Program Files (x86)/GNU Tools Arm Embedded/version13-3/arm-none-eabi/include/c++/13.3.1/bits\hashtable_policy.h ****   template<typename _Iterator>
  80:C:/Program Files (x86)/GNU Tools Arm Embedded/version13-3/arm-none-eabi/include/c++/13.3.1/bits\hashtable_policy.h ****     inline typename std::iterator_traits<_Iterator>::difference_type
  81:C:/Program Files (x86)/GNU Tools Arm Embedded/version13-3/arm-none-eabi/include/c++/13.3.1/bits\hashtable_policy.h ****     __distance_fw(_Iterator __first, _Iterator __last)
  82:C:/Program Files (x86)/GNU Tools Arm Embedded/version13-3/arm-none-eabi/include/c++/13.3.1/bits\hashtable_policy.h ****     { return __distance_fw(__first, __last,
  83:C:/Program Files (x86)/GNU Tools Arm Embedded/version13-3/arm-none-eabi/include/c++/13.3.1/bits\hashtable_policy.h **** 			   std::__iterator_category(__first)); }
  84:C:/Program Files (x86)/GNU Tools Arm Embedded/version13-3/arm-none-eabi/include/c++/13.3.1/bits\hashtable_policy.h **** 
  85:C:/Program Files (x86)/GNU Tools Arm Embedded/version13-3/arm-none-eabi/include/c++/13.3.1/bits\hashtable_policy.h ****   struct _Identity
ARM GAS  C:\Users\Owner\AppData\Local\Temp\cctnuIAx.s 			page 13


  86:C:/Program Files (x86)/GNU Tools Arm Embedded/version13-3/arm-none-eabi/include/c++/13.3.1/bits\hashtable_policy.h ****   {
  87:C:/Program Files (x86)/GNU Tools Arm Embedded/version13-3/arm-none-eabi/include/c++/13.3.1/bits\hashtable_policy.h ****     template<typename _Tp>
  88:C:/Program Files (x86)/GNU Tools Arm Embedded/version13-3/arm-none-eabi/include/c++/13.3.1/bits\hashtable_policy.h ****       _Tp&&
  89:C:/Program Files (x86)/GNU Tools Arm Embedded/version13-3/arm-none-eabi/include/c++/13.3.1/bits\hashtable_policy.h ****       operator()(_Tp&& __x) const noexcept
  90:C:/Program Files (x86)/GNU Tools Arm Embedded/version13-3/arm-none-eabi/include/c++/13.3.1/bits\hashtable_policy.h ****       { return std::forward<_Tp>(__x); }
  91:C:/Program Files (x86)/GNU Tools Arm Embedded/version13-3/arm-none-eabi/include/c++/13.3.1/bits\hashtable_policy.h ****   };
  92:C:/Program Files (x86)/GNU Tools Arm Embedded/version13-3/arm-none-eabi/include/c++/13.3.1/bits\hashtable_policy.h **** 
  93:C:/Program Files (x86)/GNU Tools Arm Embedded/version13-3/arm-none-eabi/include/c++/13.3.1/bits\hashtable_policy.h ****   struct _Select1st
  94:C:/Program Files (x86)/GNU Tools Arm Embedded/version13-3/arm-none-eabi/include/c++/13.3.1/bits\hashtable_policy.h ****   {
  95:C:/Program Files (x86)/GNU Tools Arm Embedded/version13-3/arm-none-eabi/include/c++/13.3.1/bits\hashtable_policy.h ****     template<typename _Pair>
  96:C:/Program Files (x86)/GNU Tools Arm Embedded/version13-3/arm-none-eabi/include/c++/13.3.1/bits\hashtable_policy.h ****       struct __1st_type;
  97:C:/Program Files (x86)/GNU Tools Arm Embedded/version13-3/arm-none-eabi/include/c++/13.3.1/bits\hashtable_policy.h **** 
  98:C:/Program Files (x86)/GNU Tools Arm Embedded/version13-3/arm-none-eabi/include/c++/13.3.1/bits\hashtable_policy.h ****     template<typename _Tp, typename _Up>
  99:C:/Program Files (x86)/GNU Tools Arm Embedded/version13-3/arm-none-eabi/include/c++/13.3.1/bits\hashtable_policy.h ****       struct __1st_type<pair<_Tp, _Up>>
 100:C:/Program Files (x86)/GNU Tools Arm Embedded/version13-3/arm-none-eabi/include/c++/13.3.1/bits\hashtable_policy.h ****       { using type = _Tp; };
 101:C:/Program Files (x86)/GNU Tools Arm Embedded/version13-3/arm-none-eabi/include/c++/13.3.1/bits\hashtable_policy.h **** 
 102:C:/Program Files (x86)/GNU Tools Arm Embedded/version13-3/arm-none-eabi/include/c++/13.3.1/bits\hashtable_policy.h ****     template<typename _Tp, typename _Up>
 103:C:/Program Files (x86)/GNU Tools Arm Embedded/version13-3/arm-none-eabi/include/c++/13.3.1/bits\hashtable_policy.h ****       struct __1st_type<const pair<_Tp, _Up>>
 104:C:/Program Files (x86)/GNU Tools Arm Embedded/version13-3/arm-none-eabi/include/c++/13.3.1/bits\hashtable_policy.h ****       { using type = const _Tp; };
 105:C:/Program Files (x86)/GNU Tools Arm Embedded/version13-3/arm-none-eabi/include/c++/13.3.1/bits\hashtable_policy.h **** 
 106:C:/Program Files (x86)/GNU Tools Arm Embedded/version13-3/arm-none-eabi/include/c++/13.3.1/bits\hashtable_policy.h ****     template<typename _Pair>
 107:C:/Program Files (x86)/GNU Tools Arm Embedded/version13-3/arm-none-eabi/include/c++/13.3.1/bits\hashtable_policy.h ****       struct __1st_type<_Pair&>
 108:C:/Program Files (x86)/GNU Tools Arm Embedded/version13-3/arm-none-eabi/include/c++/13.3.1/bits\hashtable_policy.h ****       { using type = typename __1st_type<_Pair>::type&; };
 109:C:/Program Files (x86)/GNU Tools Arm Embedded/version13-3/arm-none-eabi/include/c++/13.3.1/bits\hashtable_policy.h **** 
 110:C:/Program Files (x86)/GNU Tools Arm Embedded/version13-3/arm-none-eabi/include/c++/13.3.1/bits\hashtable_policy.h ****     template<typename _Tp>
 111:C:/Program Files (x86)/GNU Tools Arm Embedded/version13-3/arm-none-eabi/include/c++/13.3.1/bits\hashtable_policy.h ****       typename __1st_type<_Tp>::type&&
 112:C:/Program Files (x86)/GNU Tools Arm Embedded/version13-3/arm-none-eabi/include/c++/13.3.1/bits\hashtable_policy.h ****       operator()(_Tp&& __x) const noexcept
 113:C:/Program Files (x86)/GNU Tools Arm Embedded/version13-3/arm-none-eabi/include/c++/13.3.1/bits\hashtable_policy.h ****       { return std::forward<_Tp>(__x).first; }
 114:C:/Program Files (x86)/GNU Tools Arm Embedded/version13-3/arm-none-eabi/include/c++/13.3.1/bits\hashtable_policy.h ****   };
 115:C:/Program Files (x86)/GNU Tools Arm Embedded/version13-3/arm-none-eabi/include/c++/13.3.1/bits\hashtable_policy.h **** 
 116:C:/Program Files (x86)/GNU Tools Arm Embedded/version13-3/arm-none-eabi/include/c++/13.3.1/bits\hashtable_policy.h ****   template<typename _ExKey, typename _Value>
 117:C:/Program Files (x86)/GNU Tools Arm Embedded/version13-3/arm-none-eabi/include/c++/13.3.1/bits\hashtable_policy.h ****     struct _ConvertToValueType;
 118:C:/Program Files (x86)/GNU Tools Arm Embedded/version13-3/arm-none-eabi/include/c++/13.3.1/bits\hashtable_policy.h **** 
 119:C:/Program Files (x86)/GNU Tools Arm Embedded/version13-3/arm-none-eabi/include/c++/13.3.1/bits\hashtable_policy.h ****   template<typename _Value>
 120:C:/Program Files (x86)/GNU Tools Arm Embedded/version13-3/arm-none-eabi/include/c++/13.3.1/bits\hashtable_policy.h ****     struct _ConvertToValueType<_Identity, _Value>
 121:C:/Program Files (x86)/GNU Tools Arm Embedded/version13-3/arm-none-eabi/include/c++/13.3.1/bits\hashtable_policy.h ****     {
 122:C:/Program Files (x86)/GNU Tools Arm Embedded/version13-3/arm-none-eabi/include/c++/13.3.1/bits\hashtable_policy.h ****       template<typename _Kt>
 123:C:/Program Files (x86)/GNU Tools Arm Embedded/version13-3/arm-none-eabi/include/c++/13.3.1/bits\hashtable_policy.h **** 	constexpr _Kt&&
 124:C:/Program Files (x86)/GNU Tools Arm Embedded/version13-3/arm-none-eabi/include/c++/13.3.1/bits\hashtable_policy.h **** 	operator()(_Kt&& __k) const noexcept
 125:C:/Program Files (x86)/GNU Tools Arm Embedded/version13-3/arm-none-eabi/include/c++/13.3.1/bits\hashtable_policy.h **** 	{ return std::forward<_Kt>(__k); }
 126:C:/Program Files (x86)/GNU Tools Arm Embedded/version13-3/arm-none-eabi/include/c++/13.3.1/bits\hashtable_policy.h ****     };
 127:C:/Program Files (x86)/GNU Tools Arm Embedded/version13-3/arm-none-eabi/include/c++/13.3.1/bits\hashtable_policy.h **** 
 128:C:/Program Files (x86)/GNU Tools Arm Embedded/version13-3/arm-none-eabi/include/c++/13.3.1/bits\hashtable_policy.h ****   template<typename _Value>
 129:C:/Program Files (x86)/GNU Tools Arm Embedded/version13-3/arm-none-eabi/include/c++/13.3.1/bits\hashtable_policy.h ****     struct _ConvertToValueType<_Select1st, _Value>
 130:C:/Program Files (x86)/GNU Tools Arm Embedded/version13-3/arm-none-eabi/include/c++/13.3.1/bits\hashtable_policy.h ****     {
 131:C:/Program Files (x86)/GNU Tools Arm Embedded/version13-3/arm-none-eabi/include/c++/13.3.1/bits\hashtable_policy.h ****       constexpr _Value&&
 132:C:/Program Files (x86)/GNU Tools Arm Embedded/version13-3/arm-none-eabi/include/c++/13.3.1/bits\hashtable_policy.h ****       operator()(_Value&& __x) const noexcept
 133:C:/Program Files (x86)/GNU Tools Arm Embedded/version13-3/arm-none-eabi/include/c++/13.3.1/bits\hashtable_policy.h ****       { return std::move(__x); }
 134:C:/Program Files (x86)/GNU Tools Arm Embedded/version13-3/arm-none-eabi/include/c++/13.3.1/bits\hashtable_policy.h **** 
 135:C:/Program Files (x86)/GNU Tools Arm Embedded/version13-3/arm-none-eabi/include/c++/13.3.1/bits\hashtable_policy.h ****       constexpr const _Value&
 136:C:/Program Files (x86)/GNU Tools Arm Embedded/version13-3/arm-none-eabi/include/c++/13.3.1/bits\hashtable_policy.h ****       operator()(const _Value& __x) const noexcept
 137:C:/Program Files (x86)/GNU Tools Arm Embedded/version13-3/arm-none-eabi/include/c++/13.3.1/bits\hashtable_policy.h ****       { return __x; }
 138:C:/Program Files (x86)/GNU Tools Arm Embedded/version13-3/arm-none-eabi/include/c++/13.3.1/bits\hashtable_policy.h **** 
 139:C:/Program Files (x86)/GNU Tools Arm Embedded/version13-3/arm-none-eabi/include/c++/13.3.1/bits\hashtable_policy.h ****       template<typename _Kt, typename _Val>
 140:C:/Program Files (x86)/GNU Tools Arm Embedded/version13-3/arm-none-eabi/include/c++/13.3.1/bits\hashtable_policy.h **** 	constexpr std::pair<_Kt, _Val>&&
 141:C:/Program Files (x86)/GNU Tools Arm Embedded/version13-3/arm-none-eabi/include/c++/13.3.1/bits\hashtable_policy.h **** 	operator()(std::pair<_Kt, _Val>&& __x) const noexcept
 142:C:/Program Files (x86)/GNU Tools Arm Embedded/version13-3/arm-none-eabi/include/c++/13.3.1/bits\hashtable_policy.h **** 	{ return std::move(__x); }
ARM GAS  C:\Users\Owner\AppData\Local\Temp\cctnuIAx.s 			page 14


 143:C:/Program Files (x86)/GNU Tools Arm Embedded/version13-3/arm-none-eabi/include/c++/13.3.1/bits\hashtable_policy.h **** 
 144:C:/Program Files (x86)/GNU Tools Arm Embedded/version13-3/arm-none-eabi/include/c++/13.3.1/bits\hashtable_policy.h ****       template<typename _Kt, typename _Val>
 145:C:/Program Files (x86)/GNU Tools Arm Embedded/version13-3/arm-none-eabi/include/c++/13.3.1/bits\hashtable_policy.h **** 	constexpr const std::pair<_Kt, _Val>&
 146:C:/Program Files (x86)/GNU Tools Arm Embedded/version13-3/arm-none-eabi/include/c++/13.3.1/bits\hashtable_policy.h **** 	operator()(const std::pair<_Kt, _Val>& __x) const noexcept
 147:C:/Program Files (x86)/GNU Tools Arm Embedded/version13-3/arm-none-eabi/include/c++/13.3.1/bits\hashtable_policy.h **** 	{ return __x; }
 148:C:/Program Files (x86)/GNU Tools Arm Embedded/version13-3/arm-none-eabi/include/c++/13.3.1/bits\hashtable_policy.h ****     };
 149:C:/Program Files (x86)/GNU Tools Arm Embedded/version13-3/arm-none-eabi/include/c++/13.3.1/bits\hashtable_policy.h **** 
 150:C:/Program Files (x86)/GNU Tools Arm Embedded/version13-3/arm-none-eabi/include/c++/13.3.1/bits\hashtable_policy.h ****   template<typename _ExKey>
 151:C:/Program Files (x86)/GNU Tools Arm Embedded/version13-3/arm-none-eabi/include/c++/13.3.1/bits\hashtable_policy.h ****     struct _NodeBuilder;
 152:C:/Program Files (x86)/GNU Tools Arm Embedded/version13-3/arm-none-eabi/include/c++/13.3.1/bits\hashtable_policy.h **** 
 153:C:/Program Files (x86)/GNU Tools Arm Embedded/version13-3/arm-none-eabi/include/c++/13.3.1/bits\hashtable_policy.h ****   template<>
 154:C:/Program Files (x86)/GNU Tools Arm Embedded/version13-3/arm-none-eabi/include/c++/13.3.1/bits\hashtable_policy.h ****     struct _NodeBuilder<_Select1st>
 155:C:/Program Files (x86)/GNU Tools Arm Embedded/version13-3/arm-none-eabi/include/c++/13.3.1/bits\hashtable_policy.h ****     {
 156:C:/Program Files (x86)/GNU Tools Arm Embedded/version13-3/arm-none-eabi/include/c++/13.3.1/bits\hashtable_policy.h ****       template<typename _Kt, typename _Arg, typename _NodeGenerator>
 157:C:/Program Files (x86)/GNU Tools Arm Embedded/version13-3/arm-none-eabi/include/c++/13.3.1/bits\hashtable_policy.h **** 	static auto
 158:C:/Program Files (x86)/GNU Tools Arm Embedded/version13-3/arm-none-eabi/include/c++/13.3.1/bits\hashtable_policy.h **** 	_S_build(_Kt&& __k, _Arg&& __arg, const _NodeGenerator& __node_gen)
 159:C:/Program Files (x86)/GNU Tools Arm Embedded/version13-3/arm-none-eabi/include/c++/13.3.1/bits\hashtable_policy.h **** 	-> typename _NodeGenerator::__node_type*
 160:C:/Program Files (x86)/GNU Tools Arm Embedded/version13-3/arm-none-eabi/include/c++/13.3.1/bits\hashtable_policy.h **** 	{
 161:C:/Program Files (x86)/GNU Tools Arm Embedded/version13-3/arm-none-eabi/include/c++/13.3.1/bits\hashtable_policy.h **** 	  return __node_gen(std::forward<_Kt>(__k),
 162:C:/Program Files (x86)/GNU Tools Arm Embedded/version13-3/arm-none-eabi/include/c++/13.3.1/bits\hashtable_policy.h **** 			    std::forward<_Arg>(__arg).second);
 163:C:/Program Files (x86)/GNU Tools Arm Embedded/version13-3/arm-none-eabi/include/c++/13.3.1/bits\hashtable_policy.h **** 	}
 164:C:/Program Files (x86)/GNU Tools Arm Embedded/version13-3/arm-none-eabi/include/c++/13.3.1/bits\hashtable_policy.h ****     };
 165:C:/Program Files (x86)/GNU Tools Arm Embedded/version13-3/arm-none-eabi/include/c++/13.3.1/bits\hashtable_policy.h **** 
 166:C:/Program Files (x86)/GNU Tools Arm Embedded/version13-3/arm-none-eabi/include/c++/13.3.1/bits\hashtable_policy.h ****   template<>
 167:C:/Program Files (x86)/GNU Tools Arm Embedded/version13-3/arm-none-eabi/include/c++/13.3.1/bits\hashtable_policy.h ****     struct _NodeBuilder<_Identity>
 168:C:/Program Files (x86)/GNU Tools Arm Embedded/version13-3/arm-none-eabi/include/c++/13.3.1/bits\hashtable_policy.h ****     {
 169:C:/Program Files (x86)/GNU Tools Arm Embedded/version13-3/arm-none-eabi/include/c++/13.3.1/bits\hashtable_policy.h ****       template<typename _Kt, typename _Arg, typename _NodeGenerator>
 170:C:/Program Files (x86)/GNU Tools Arm Embedded/version13-3/arm-none-eabi/include/c++/13.3.1/bits\hashtable_policy.h **** 	static auto
 171:C:/Program Files (x86)/GNU Tools Arm Embedded/version13-3/arm-none-eabi/include/c++/13.3.1/bits\hashtable_policy.h **** 	_S_build(_Kt&& __k, _Arg&&, const _NodeGenerator& __node_gen)
 172:C:/Program Files (x86)/GNU Tools Arm Embedded/version13-3/arm-none-eabi/include/c++/13.3.1/bits\hashtable_policy.h **** 	-> typename _NodeGenerator::__node_type*
 173:C:/Program Files (x86)/GNU Tools Arm Embedded/version13-3/arm-none-eabi/include/c++/13.3.1/bits\hashtable_policy.h **** 	{ return __node_gen(std::forward<_Kt>(__k)); }
 174:C:/Program Files (x86)/GNU Tools Arm Embedded/version13-3/arm-none-eabi/include/c++/13.3.1/bits\hashtable_policy.h ****     };
 175:C:/Program Files (x86)/GNU Tools Arm Embedded/version13-3/arm-none-eabi/include/c++/13.3.1/bits\hashtable_policy.h **** 
 176:C:/Program Files (x86)/GNU Tools Arm Embedded/version13-3/arm-none-eabi/include/c++/13.3.1/bits\hashtable_policy.h ****   template<typename _NodeAlloc>
 177:C:/Program Files (x86)/GNU Tools Arm Embedded/version13-3/arm-none-eabi/include/c++/13.3.1/bits\hashtable_policy.h ****     struct _Hashtable_alloc;
 178:C:/Program Files (x86)/GNU Tools Arm Embedded/version13-3/arm-none-eabi/include/c++/13.3.1/bits\hashtable_policy.h **** 
 179:C:/Program Files (x86)/GNU Tools Arm Embedded/version13-3/arm-none-eabi/include/c++/13.3.1/bits\hashtable_policy.h ****   // Functor recycling a pool of nodes and using allocation once the pool is
 180:C:/Program Files (x86)/GNU Tools Arm Embedded/version13-3/arm-none-eabi/include/c++/13.3.1/bits\hashtable_policy.h ****   // empty.
 181:C:/Program Files (x86)/GNU Tools Arm Embedded/version13-3/arm-none-eabi/include/c++/13.3.1/bits\hashtable_policy.h ****   template<typename _NodeAlloc>
 182:C:/Program Files (x86)/GNU Tools Arm Embedded/version13-3/arm-none-eabi/include/c++/13.3.1/bits\hashtable_policy.h ****     struct _ReuseOrAllocNode
 183:C:/Program Files (x86)/GNU Tools Arm Embedded/version13-3/arm-none-eabi/include/c++/13.3.1/bits\hashtable_policy.h ****     {
 184:C:/Program Files (x86)/GNU Tools Arm Embedded/version13-3/arm-none-eabi/include/c++/13.3.1/bits\hashtable_policy.h ****     private:
 185:C:/Program Files (x86)/GNU Tools Arm Embedded/version13-3/arm-none-eabi/include/c++/13.3.1/bits\hashtable_policy.h ****       using __node_alloc_type = _NodeAlloc;
 186:C:/Program Files (x86)/GNU Tools Arm Embedded/version13-3/arm-none-eabi/include/c++/13.3.1/bits\hashtable_policy.h ****       using __hashtable_alloc = _Hashtable_alloc<__node_alloc_type>;
 187:C:/Program Files (x86)/GNU Tools Arm Embedded/version13-3/arm-none-eabi/include/c++/13.3.1/bits\hashtable_policy.h ****       using __node_alloc_traits =
 188:C:/Program Files (x86)/GNU Tools Arm Embedded/version13-3/arm-none-eabi/include/c++/13.3.1/bits\hashtable_policy.h **** 	typename __hashtable_alloc::__node_alloc_traits;
 189:C:/Program Files (x86)/GNU Tools Arm Embedded/version13-3/arm-none-eabi/include/c++/13.3.1/bits\hashtable_policy.h **** 
 190:C:/Program Files (x86)/GNU Tools Arm Embedded/version13-3/arm-none-eabi/include/c++/13.3.1/bits\hashtable_policy.h ****     public:
 191:C:/Program Files (x86)/GNU Tools Arm Embedded/version13-3/arm-none-eabi/include/c++/13.3.1/bits\hashtable_policy.h ****       using __node_type = typename __hashtable_alloc::__node_type;
 192:C:/Program Files (x86)/GNU Tools Arm Embedded/version13-3/arm-none-eabi/include/c++/13.3.1/bits\hashtable_policy.h **** 
 193:C:/Program Files (x86)/GNU Tools Arm Embedded/version13-3/arm-none-eabi/include/c++/13.3.1/bits\hashtable_policy.h ****       _ReuseOrAllocNode(__node_type* __nodes, __hashtable_alloc& __h)
 194:C:/Program Files (x86)/GNU Tools Arm Embedded/version13-3/arm-none-eabi/include/c++/13.3.1/bits\hashtable_policy.h ****       : _M_nodes(__nodes), _M_h(__h) { }
 195:C:/Program Files (x86)/GNU Tools Arm Embedded/version13-3/arm-none-eabi/include/c++/13.3.1/bits\hashtable_policy.h ****       _ReuseOrAllocNode(const _ReuseOrAllocNode&) = delete;
 196:C:/Program Files (x86)/GNU Tools Arm Embedded/version13-3/arm-none-eabi/include/c++/13.3.1/bits\hashtable_policy.h **** 
 197:C:/Program Files (x86)/GNU Tools Arm Embedded/version13-3/arm-none-eabi/include/c++/13.3.1/bits\hashtable_policy.h ****       ~_ReuseOrAllocNode()
 198:C:/Program Files (x86)/GNU Tools Arm Embedded/version13-3/arm-none-eabi/include/c++/13.3.1/bits\hashtable_policy.h ****       { _M_h._M_deallocate_nodes(_M_nodes); }
 199:C:/Program Files (x86)/GNU Tools Arm Embedded/version13-3/arm-none-eabi/include/c++/13.3.1/bits\hashtable_policy.h **** 
ARM GAS  C:\Users\Owner\AppData\Local\Temp\cctnuIAx.s 			page 15


 200:C:/Program Files (x86)/GNU Tools Arm Embedded/version13-3/arm-none-eabi/include/c++/13.3.1/bits\hashtable_policy.h ****       template<typename... _Args>
 201:C:/Program Files (x86)/GNU Tools Arm Embedded/version13-3/arm-none-eabi/include/c++/13.3.1/bits\hashtable_policy.h **** 	__node_type*
 202:C:/Program Files (x86)/GNU Tools Arm Embedded/version13-3/arm-none-eabi/include/c++/13.3.1/bits\hashtable_policy.h **** 	operator()(_Args&&... __args) const
 203:C:/Program Files (x86)/GNU Tools Arm Embedded/version13-3/arm-none-eabi/include/c++/13.3.1/bits\hashtable_policy.h **** 	{
 204:C:/Program Files (x86)/GNU Tools Arm Embedded/version13-3/arm-none-eabi/include/c++/13.3.1/bits\hashtable_policy.h **** 	  if (_M_nodes)
 205:C:/Program Files (x86)/GNU Tools Arm Embedded/version13-3/arm-none-eabi/include/c++/13.3.1/bits\hashtable_policy.h **** 	    {
 206:C:/Program Files (x86)/GNU Tools Arm Embedded/version13-3/arm-none-eabi/include/c++/13.3.1/bits\hashtable_policy.h **** 	      __node_type* __node = _M_nodes;
 207:C:/Program Files (x86)/GNU Tools Arm Embedded/version13-3/arm-none-eabi/include/c++/13.3.1/bits\hashtable_policy.h **** 	      _M_nodes = _M_nodes->_M_next();
 208:C:/Program Files (x86)/GNU Tools Arm Embedded/version13-3/arm-none-eabi/include/c++/13.3.1/bits\hashtable_policy.h **** 	      __node->_M_nxt = nullptr;
 209:C:/Program Files (x86)/GNU Tools Arm Embedded/version13-3/arm-none-eabi/include/c++/13.3.1/bits\hashtable_policy.h **** 	      auto& __a = _M_h._M_node_allocator();
 210:C:/Program Files (x86)/GNU Tools Arm Embedded/version13-3/arm-none-eabi/include/c++/13.3.1/bits\hashtable_policy.h **** 	      __node_alloc_traits::destroy(__a, __node->_M_valptr());
 211:C:/Program Files (x86)/GNU Tools Arm Embedded/version13-3/arm-none-eabi/include/c++/13.3.1/bits\hashtable_policy.h **** 	      __try
 212:C:/Program Files (x86)/GNU Tools Arm Embedded/version13-3/arm-none-eabi/include/c++/13.3.1/bits\hashtable_policy.h **** 		{
 213:C:/Program Files (x86)/GNU Tools Arm Embedded/version13-3/arm-none-eabi/include/c++/13.3.1/bits\hashtable_policy.h **** 		  __node_alloc_traits::construct(__a, __node->_M_valptr(),
 214:C:/Program Files (x86)/GNU Tools Arm Embedded/version13-3/arm-none-eabi/include/c++/13.3.1/bits\hashtable_policy.h **** 						 std::forward<_Args>(__args)...);
 215:C:/Program Files (x86)/GNU Tools Arm Embedded/version13-3/arm-none-eabi/include/c++/13.3.1/bits\hashtable_policy.h **** 		}
 216:C:/Program Files (x86)/GNU Tools Arm Embedded/version13-3/arm-none-eabi/include/c++/13.3.1/bits\hashtable_policy.h **** 	      __catch(...)
 217:C:/Program Files (x86)/GNU Tools Arm Embedded/version13-3/arm-none-eabi/include/c++/13.3.1/bits\hashtable_policy.h **** 		{
 218:C:/Program Files (x86)/GNU Tools Arm Embedded/version13-3/arm-none-eabi/include/c++/13.3.1/bits\hashtable_policy.h **** 		  _M_h._M_deallocate_node_ptr(__node);
 219:C:/Program Files (x86)/GNU Tools Arm Embedded/version13-3/arm-none-eabi/include/c++/13.3.1/bits\hashtable_policy.h **** 		  __throw_exception_again;
 220:C:/Program Files (x86)/GNU Tools Arm Embedded/version13-3/arm-none-eabi/include/c++/13.3.1/bits\hashtable_policy.h **** 		}
 221:C:/Program Files (x86)/GNU Tools Arm Embedded/version13-3/arm-none-eabi/include/c++/13.3.1/bits\hashtable_policy.h **** 	      return __node;
 222:C:/Program Files (x86)/GNU Tools Arm Embedded/version13-3/arm-none-eabi/include/c++/13.3.1/bits\hashtable_policy.h **** 	    }
 223:C:/Program Files (x86)/GNU Tools Arm Embedded/version13-3/arm-none-eabi/include/c++/13.3.1/bits\hashtable_policy.h **** 	  return _M_h._M_allocate_node(std::forward<_Args>(__args)...);
 224:C:/Program Files (x86)/GNU Tools Arm Embedded/version13-3/arm-none-eabi/include/c++/13.3.1/bits\hashtable_policy.h **** 	}
 225:C:/Program Files (x86)/GNU Tools Arm Embedded/version13-3/arm-none-eabi/include/c++/13.3.1/bits\hashtable_policy.h **** 
 226:C:/Program Files (x86)/GNU Tools Arm Embedded/version13-3/arm-none-eabi/include/c++/13.3.1/bits\hashtable_policy.h ****     private:
 227:C:/Program Files (x86)/GNU Tools Arm Embedded/version13-3/arm-none-eabi/include/c++/13.3.1/bits\hashtable_policy.h ****       mutable __node_type* _M_nodes;
 228:C:/Program Files (x86)/GNU Tools Arm Embedded/version13-3/arm-none-eabi/include/c++/13.3.1/bits\hashtable_policy.h ****       __hashtable_alloc& _M_h;
 229:C:/Program Files (x86)/GNU Tools Arm Embedded/version13-3/arm-none-eabi/include/c++/13.3.1/bits\hashtable_policy.h ****     };
 230:C:/Program Files (x86)/GNU Tools Arm Embedded/version13-3/arm-none-eabi/include/c++/13.3.1/bits\hashtable_policy.h **** 
 231:C:/Program Files (x86)/GNU Tools Arm Embedded/version13-3/arm-none-eabi/include/c++/13.3.1/bits\hashtable_policy.h ****   // Functor similar to the previous one but without any pool of nodes to
 232:C:/Program Files (x86)/GNU Tools Arm Embedded/version13-3/arm-none-eabi/include/c++/13.3.1/bits\hashtable_policy.h ****   // recycle.
 233:C:/Program Files (x86)/GNU Tools Arm Embedded/version13-3/arm-none-eabi/include/c++/13.3.1/bits\hashtable_policy.h ****   template<typename _NodeAlloc>
 234:C:/Program Files (x86)/GNU Tools Arm Embedded/version13-3/arm-none-eabi/include/c++/13.3.1/bits\hashtable_policy.h ****     struct _AllocNode
 235:C:/Program Files (x86)/GNU Tools Arm Embedded/version13-3/arm-none-eabi/include/c++/13.3.1/bits\hashtable_policy.h ****     {
 236:C:/Program Files (x86)/GNU Tools Arm Embedded/version13-3/arm-none-eabi/include/c++/13.3.1/bits\hashtable_policy.h ****     private:
 237:C:/Program Files (x86)/GNU Tools Arm Embedded/version13-3/arm-none-eabi/include/c++/13.3.1/bits\hashtable_policy.h ****       using __hashtable_alloc = _Hashtable_alloc<_NodeAlloc>;
 238:C:/Program Files (x86)/GNU Tools Arm Embedded/version13-3/arm-none-eabi/include/c++/13.3.1/bits\hashtable_policy.h **** 
 239:C:/Program Files (x86)/GNU Tools Arm Embedded/version13-3/arm-none-eabi/include/c++/13.3.1/bits\hashtable_policy.h ****     public:
 240:C:/Program Files (x86)/GNU Tools Arm Embedded/version13-3/arm-none-eabi/include/c++/13.3.1/bits\hashtable_policy.h ****       using __node_type = typename __hashtable_alloc::__node_type;
 241:C:/Program Files (x86)/GNU Tools Arm Embedded/version13-3/arm-none-eabi/include/c++/13.3.1/bits\hashtable_policy.h **** 
 242:C:/Program Files (x86)/GNU Tools Arm Embedded/version13-3/arm-none-eabi/include/c++/13.3.1/bits\hashtable_policy.h ****       _AllocNode(__hashtable_alloc& __h)
 243:C:/Program Files (x86)/GNU Tools Arm Embedded/version13-3/arm-none-eabi/include/c++/13.3.1/bits\hashtable_policy.h ****       : _M_h(__h) { }
 244:C:/Program Files (x86)/GNU Tools Arm Embedded/version13-3/arm-none-eabi/include/c++/13.3.1/bits\hashtable_policy.h **** 
 245:C:/Program Files (x86)/GNU Tools Arm Embedded/version13-3/arm-none-eabi/include/c++/13.3.1/bits\hashtable_policy.h ****       template<typename... _Args>
 246:C:/Program Files (x86)/GNU Tools Arm Embedded/version13-3/arm-none-eabi/include/c++/13.3.1/bits\hashtable_policy.h **** 	__node_type*
 247:C:/Program Files (x86)/GNU Tools Arm Embedded/version13-3/arm-none-eabi/include/c++/13.3.1/bits\hashtable_policy.h **** 	operator()(_Args&&... __args) const
 248:C:/Program Files (x86)/GNU Tools Arm Embedded/version13-3/arm-none-eabi/include/c++/13.3.1/bits\hashtable_policy.h **** 	{ return _M_h._M_allocate_node(std::forward<_Args>(__args)...); }
 249:C:/Program Files (x86)/GNU Tools Arm Embedded/version13-3/arm-none-eabi/include/c++/13.3.1/bits\hashtable_policy.h **** 
 250:C:/Program Files (x86)/GNU Tools Arm Embedded/version13-3/arm-none-eabi/include/c++/13.3.1/bits\hashtable_policy.h ****     private:
 251:C:/Program Files (x86)/GNU Tools Arm Embedded/version13-3/arm-none-eabi/include/c++/13.3.1/bits\hashtable_policy.h ****       __hashtable_alloc& _M_h;
 252:C:/Program Files (x86)/GNU Tools Arm Embedded/version13-3/arm-none-eabi/include/c++/13.3.1/bits\hashtable_policy.h ****     };
 253:C:/Program Files (x86)/GNU Tools Arm Embedded/version13-3/arm-none-eabi/include/c++/13.3.1/bits\hashtable_policy.h **** 
 254:C:/Program Files (x86)/GNU Tools Arm Embedded/version13-3/arm-none-eabi/include/c++/13.3.1/bits\hashtable_policy.h ****   // Auxiliary types used for all instantiations of _Hashtable nodes
 255:C:/Program Files (x86)/GNU Tools Arm Embedded/version13-3/arm-none-eabi/include/c++/13.3.1/bits\hashtable_policy.h ****   // and iterators.
 256:C:/Program Files (x86)/GNU Tools Arm Embedded/version13-3/arm-none-eabi/include/c++/13.3.1/bits\hashtable_policy.h **** 
ARM GAS  C:\Users\Owner\AppData\Local\Temp\cctnuIAx.s 			page 16


 257:C:/Program Files (x86)/GNU Tools Arm Embedded/version13-3/arm-none-eabi/include/c++/13.3.1/bits\hashtable_policy.h ****   /**
 258:C:/Program Files (x86)/GNU Tools Arm Embedded/version13-3/arm-none-eabi/include/c++/13.3.1/bits\hashtable_policy.h ****    *  struct _Hashtable_traits
 259:C:/Program Files (x86)/GNU Tools Arm Embedded/version13-3/arm-none-eabi/include/c++/13.3.1/bits\hashtable_policy.h ****    *
 260:C:/Program Files (x86)/GNU Tools Arm Embedded/version13-3/arm-none-eabi/include/c++/13.3.1/bits\hashtable_policy.h ****    *  Important traits for hash tables.
 261:C:/Program Files (x86)/GNU Tools Arm Embedded/version13-3/arm-none-eabi/include/c++/13.3.1/bits\hashtable_policy.h ****    *
 262:C:/Program Files (x86)/GNU Tools Arm Embedded/version13-3/arm-none-eabi/include/c++/13.3.1/bits\hashtable_policy.h ****    *  @tparam _Cache_hash_code  Boolean value. True if the value of
 263:C:/Program Files (x86)/GNU Tools Arm Embedded/version13-3/arm-none-eabi/include/c++/13.3.1/bits\hashtable_policy.h ****    *  the hash function is stored along with the value. This is a
 264:C:/Program Files (x86)/GNU Tools Arm Embedded/version13-3/arm-none-eabi/include/c++/13.3.1/bits\hashtable_policy.h ****    *  time-space tradeoff.  Storing it may improve lookup speed by
 265:C:/Program Files (x86)/GNU Tools Arm Embedded/version13-3/arm-none-eabi/include/c++/13.3.1/bits\hashtable_policy.h ****    *  reducing the number of times we need to call the _Hash or _Equal
 266:C:/Program Files (x86)/GNU Tools Arm Embedded/version13-3/arm-none-eabi/include/c++/13.3.1/bits\hashtable_policy.h ****    *  functors.
 267:C:/Program Files (x86)/GNU Tools Arm Embedded/version13-3/arm-none-eabi/include/c++/13.3.1/bits\hashtable_policy.h ****    *
 268:C:/Program Files (x86)/GNU Tools Arm Embedded/version13-3/arm-none-eabi/include/c++/13.3.1/bits\hashtable_policy.h ****    *  @tparam _Constant_iterators  Boolean value. True if iterator and
 269:C:/Program Files (x86)/GNU Tools Arm Embedded/version13-3/arm-none-eabi/include/c++/13.3.1/bits\hashtable_policy.h ****    *  const_iterator are both constant iterator types. This is true
 270:C:/Program Files (x86)/GNU Tools Arm Embedded/version13-3/arm-none-eabi/include/c++/13.3.1/bits\hashtable_policy.h ****    *  for unordered_set and unordered_multiset, false for
 271:C:/Program Files (x86)/GNU Tools Arm Embedded/version13-3/arm-none-eabi/include/c++/13.3.1/bits\hashtable_policy.h ****    *  unordered_map and unordered_multimap.
 272:C:/Program Files (x86)/GNU Tools Arm Embedded/version13-3/arm-none-eabi/include/c++/13.3.1/bits\hashtable_policy.h ****    *
 273:C:/Program Files (x86)/GNU Tools Arm Embedded/version13-3/arm-none-eabi/include/c++/13.3.1/bits\hashtable_policy.h ****    *  @tparam _Unique_keys  Boolean value. True if the return value
 274:C:/Program Files (x86)/GNU Tools Arm Embedded/version13-3/arm-none-eabi/include/c++/13.3.1/bits\hashtable_policy.h ****    *  of _Hashtable::count(k) is always at most one, false if it may
 275:C:/Program Files (x86)/GNU Tools Arm Embedded/version13-3/arm-none-eabi/include/c++/13.3.1/bits\hashtable_policy.h ****    *  be an arbitrary number. This is true for unordered_set and
 276:C:/Program Files (x86)/GNU Tools Arm Embedded/version13-3/arm-none-eabi/include/c++/13.3.1/bits\hashtable_policy.h ****    *  unordered_map, false for unordered_multiset and
 277:C:/Program Files (x86)/GNU Tools Arm Embedded/version13-3/arm-none-eabi/include/c++/13.3.1/bits\hashtable_policy.h ****    *  unordered_multimap.
 278:C:/Program Files (x86)/GNU Tools Arm Embedded/version13-3/arm-none-eabi/include/c++/13.3.1/bits\hashtable_policy.h ****    */
 279:C:/Program Files (x86)/GNU Tools Arm Embedded/version13-3/arm-none-eabi/include/c++/13.3.1/bits\hashtable_policy.h ****   template<bool _Cache_hash_code, bool _Constant_iterators, bool _Unique_keys>
 280:C:/Program Files (x86)/GNU Tools Arm Embedded/version13-3/arm-none-eabi/include/c++/13.3.1/bits\hashtable_policy.h ****     struct _Hashtable_traits
 281:C:/Program Files (x86)/GNU Tools Arm Embedded/version13-3/arm-none-eabi/include/c++/13.3.1/bits\hashtable_policy.h ****     {
 282:C:/Program Files (x86)/GNU Tools Arm Embedded/version13-3/arm-none-eabi/include/c++/13.3.1/bits\hashtable_policy.h ****       using __hash_cached = __bool_constant<_Cache_hash_code>;
 283:C:/Program Files (x86)/GNU Tools Arm Embedded/version13-3/arm-none-eabi/include/c++/13.3.1/bits\hashtable_policy.h ****       using __constant_iterators = __bool_constant<_Constant_iterators>;
 284:C:/Program Files (x86)/GNU Tools Arm Embedded/version13-3/arm-none-eabi/include/c++/13.3.1/bits\hashtable_policy.h ****       using __unique_keys = __bool_constant<_Unique_keys>;
 285:C:/Program Files (x86)/GNU Tools Arm Embedded/version13-3/arm-none-eabi/include/c++/13.3.1/bits\hashtable_policy.h ****     };
 286:C:/Program Files (x86)/GNU Tools Arm Embedded/version13-3/arm-none-eabi/include/c++/13.3.1/bits\hashtable_policy.h **** 
 287:C:/Program Files (x86)/GNU Tools Arm Embedded/version13-3/arm-none-eabi/include/c++/13.3.1/bits\hashtable_policy.h ****   /**
 288:C:/Program Files (x86)/GNU Tools Arm Embedded/version13-3/arm-none-eabi/include/c++/13.3.1/bits\hashtable_policy.h ****    *  struct _Hashtable_hash_traits
 289:C:/Program Files (x86)/GNU Tools Arm Embedded/version13-3/arm-none-eabi/include/c++/13.3.1/bits\hashtable_policy.h ****    *
 290:C:/Program Files (x86)/GNU Tools Arm Embedded/version13-3/arm-none-eabi/include/c++/13.3.1/bits\hashtable_policy.h ****    *  Important traits for hash tables depending on associated hasher.
 291:C:/Program Files (x86)/GNU Tools Arm Embedded/version13-3/arm-none-eabi/include/c++/13.3.1/bits\hashtable_policy.h ****    *
 292:C:/Program Files (x86)/GNU Tools Arm Embedded/version13-3/arm-none-eabi/include/c++/13.3.1/bits\hashtable_policy.h ****    */
 293:C:/Program Files (x86)/GNU Tools Arm Embedded/version13-3/arm-none-eabi/include/c++/13.3.1/bits\hashtable_policy.h ****   template<typename _Hash>
 294:C:/Program Files (x86)/GNU Tools Arm Embedded/version13-3/arm-none-eabi/include/c++/13.3.1/bits\hashtable_policy.h ****     struct _Hashtable_hash_traits
 295:C:/Program Files (x86)/GNU Tools Arm Embedded/version13-3/arm-none-eabi/include/c++/13.3.1/bits\hashtable_policy.h ****     {
 296:C:/Program Files (x86)/GNU Tools Arm Embedded/version13-3/arm-none-eabi/include/c++/13.3.1/bits\hashtable_policy.h ****       static constexpr std::size_t
 297:C:/Program Files (x86)/GNU Tools Arm Embedded/version13-3/arm-none-eabi/include/c++/13.3.1/bits\hashtable_policy.h ****       __small_size_threshold() noexcept
 298:C:/Program Files (x86)/GNU Tools Arm Embedded/version13-3/arm-none-eabi/include/c++/13.3.1/bits\hashtable_policy.h ****       { return std::__is_fast_hash<_Hash>::value ? 0 : 20; }
 299:C:/Program Files (x86)/GNU Tools Arm Embedded/version13-3/arm-none-eabi/include/c++/13.3.1/bits\hashtable_policy.h ****     };
 300:C:/Program Files (x86)/GNU Tools Arm Embedded/version13-3/arm-none-eabi/include/c++/13.3.1/bits\hashtable_policy.h **** 
 301:C:/Program Files (x86)/GNU Tools Arm Embedded/version13-3/arm-none-eabi/include/c++/13.3.1/bits\hashtable_policy.h ****   /**
 302:C:/Program Files (x86)/GNU Tools Arm Embedded/version13-3/arm-none-eabi/include/c++/13.3.1/bits\hashtable_policy.h ****    *  struct _Hash_node_base
 303:C:/Program Files (x86)/GNU Tools Arm Embedded/version13-3/arm-none-eabi/include/c++/13.3.1/bits\hashtable_policy.h ****    *
 304:C:/Program Files (x86)/GNU Tools Arm Embedded/version13-3/arm-none-eabi/include/c++/13.3.1/bits\hashtable_policy.h ****    *  Nodes, used to wrap elements stored in the hash table.  A policy
 305:C:/Program Files (x86)/GNU Tools Arm Embedded/version13-3/arm-none-eabi/include/c++/13.3.1/bits\hashtable_policy.h ****    *  template parameter of class template _Hashtable controls whether
 306:C:/Program Files (x86)/GNU Tools Arm Embedded/version13-3/arm-none-eabi/include/c++/13.3.1/bits\hashtable_policy.h ****    *  nodes also store a hash code. In some cases (e.g. strings) this
 307:C:/Program Files (x86)/GNU Tools Arm Embedded/version13-3/arm-none-eabi/include/c++/13.3.1/bits\hashtable_policy.h ****    *  may be a performance win.
 308:C:/Program Files (x86)/GNU Tools Arm Embedded/version13-3/arm-none-eabi/include/c++/13.3.1/bits\hashtable_policy.h ****    */
 309:C:/Program Files (x86)/GNU Tools Arm Embedded/version13-3/arm-none-eabi/include/c++/13.3.1/bits\hashtable_policy.h ****   struct _Hash_node_base
 310:C:/Program Files (x86)/GNU Tools Arm Embedded/version13-3/arm-none-eabi/include/c++/13.3.1/bits\hashtable_policy.h ****   {
 311:C:/Program Files (x86)/GNU Tools Arm Embedded/version13-3/arm-none-eabi/include/c++/13.3.1/bits\hashtable_policy.h ****     _Hash_node_base* _M_nxt;
 312:C:/Program Files (x86)/GNU Tools Arm Embedded/version13-3/arm-none-eabi/include/c++/13.3.1/bits\hashtable_policy.h **** 
 313:C:/Program Files (x86)/GNU Tools Arm Embedded/version13-3/arm-none-eabi/include/c++/13.3.1/bits\hashtable_policy.h ****     _Hash_node_base() noexcept : _M_nxt() { }
ARM GAS  C:\Users\Owner\AppData\Local\Temp\cctnuIAx.s 			page 17


  59              		.loc 3 313 34 view .LVU3
  60 0006 0027     		movs	r7, #0
  61              	.LBE3789:
  62              	.LBE3788:
  63              	.LBE3787:
  64              	.LBE3786:
  65              	.LBE3785:
  66              		.loc 1 8 1 view .LVU4
  67 0008 ADB0     		sub	sp, sp, #180
  68              		.cfi_def_cfa_offset 216
  69              		.loc 1 8 1 view .LVU5
  70 000a 8846     		mov	r8, r1
  71              	.LBB3810:
  72              	.LBB3811:
  73              	.LBB3812:
  74              		.loc 2 530 7 discriminator 2 view .LVU6
  75 000c 0362     		str	r3, [r0, #32]
  76              	.LBE3812:
  77              	.LBE3811:
  78              	.LBE3810:
  79              	.LBB3831:
  80              	.LBB3806:
  81              	.LBB3802:
  82 000e 00F11801 		add	r1, r0, #24
  83              	.LVL1:
  84              		.loc 2 530 7 discriminator 2 view .LVU7
  85              	.LBE3802:
  86              	.LBE3806:
  87              	.LBE3831:
  88              	.LBB3832:
  89              	.LBB3833:
  90              	.LBB3834:
  91 0012 C363     		str	r3, [r0, #60]
  92              	.LBE3834:
  93              	.LBE3833:
  94              	.LBE3832:
  95              		.loc 1 8 1 view .LVU8
  96 0014 0546     		mov	r5, r0
  97              	.LVL2:
  98              	.LBB3855:
  99              	.LBI3785:
 100              		.file 4 "C:/Program Files (x86)/GNU Tools Arm Embedded/version13-3/arm-none-eabi/include/c++/13.3.
   1:C:/Program Files (x86)/GNU Tools Arm Embedded/version13-3/arm-none-eabi/include/c++/13.3.1/bits\unordered_map.h **** // unordered_map implementation -*- C++ -*-
   2:C:/Program Files (x86)/GNU Tools Arm Embedded/version13-3/arm-none-eabi/include/c++/13.3.1/bits\unordered_map.h **** 
   3:C:/Program Files (x86)/GNU Tools Arm Embedded/version13-3/arm-none-eabi/include/c++/13.3.1/bits\unordered_map.h **** // Copyright (C) 2010-2023 Free Software Foundation, Inc.
   4:C:/Program Files (x86)/GNU Tools Arm Embedded/version13-3/arm-none-eabi/include/c++/13.3.1/bits\unordered_map.h **** //
   5:C:/Program Files (x86)/GNU Tools Arm Embedded/version13-3/arm-none-eabi/include/c++/13.3.1/bits\unordered_map.h **** // This file is part of the GNU ISO C++ Library.  This library is free
   6:C:/Program Files (x86)/GNU Tools Arm Embedded/version13-3/arm-none-eabi/include/c++/13.3.1/bits\unordered_map.h **** // software; you can redistribute it and/or modify it under the
   7:C:/Program Files (x86)/GNU Tools Arm Embedded/version13-3/arm-none-eabi/include/c++/13.3.1/bits\unordered_map.h **** // terms of the GNU General Public License as published by the
   8:C:/Program Files (x86)/GNU Tools Arm Embedded/version13-3/arm-none-eabi/include/c++/13.3.1/bits\unordered_map.h **** // Free Software Foundation; either version 3, or (at your option)
   9:C:/Program Files (x86)/GNU Tools Arm Embedded/version13-3/arm-none-eabi/include/c++/13.3.1/bits\unordered_map.h **** // any later version.
  10:C:/Program Files (x86)/GNU Tools Arm Embedded/version13-3/arm-none-eabi/include/c++/13.3.1/bits\unordered_map.h **** 
  11:C:/Program Files (x86)/GNU Tools Arm Embedded/version13-3/arm-none-eabi/include/c++/13.3.1/bits\unordered_map.h **** // This library is distributed in the hope that it will be useful,
  12:C:/Program Files (x86)/GNU Tools Arm Embedded/version13-3/arm-none-eabi/include/c++/13.3.1/bits\unordered_map.h **** // but WITHOUT ANY WARRANTY; without even the implied warranty of
  13:C:/Program Files (x86)/GNU Tools Arm Embedded/version13-3/arm-none-eabi/include/c++/13.3.1/bits\unordered_map.h **** // MERCHANTABILITY or FITNESS FOR A PARTICULAR PURPOSE.  See the
  14:C:/Program Files (x86)/GNU Tools Arm Embedded/version13-3/arm-none-eabi/include/c++/13.3.1/bits\unordered_map.h **** // GNU General Public License for more details.
  15:C:/Program Files (x86)/GNU Tools Arm Embedded/version13-3/arm-none-eabi/include/c++/13.3.1/bits\unordered_map.h **** 
ARM GAS  C:\Users\Owner\AppData\Local\Temp\cctnuIAx.s 			page 18


  16:C:/Program Files (x86)/GNU Tools Arm Embedded/version13-3/arm-none-eabi/include/c++/13.3.1/bits\unordered_map.h **** // Under Section 7 of GPL version 3, you are granted additional
  17:C:/Program Files (x86)/GNU Tools Arm Embedded/version13-3/arm-none-eabi/include/c++/13.3.1/bits\unordered_map.h **** // permissions described in the GCC Runtime Library Exception, version
  18:C:/Program Files (x86)/GNU Tools Arm Embedded/version13-3/arm-none-eabi/include/c++/13.3.1/bits\unordered_map.h **** // 3.1, as published by the Free Software Foundation.
  19:C:/Program Files (x86)/GNU Tools Arm Embedded/version13-3/arm-none-eabi/include/c++/13.3.1/bits\unordered_map.h **** 
  20:C:/Program Files (x86)/GNU Tools Arm Embedded/version13-3/arm-none-eabi/include/c++/13.3.1/bits\unordered_map.h **** // You should have received a copy of the GNU General Public License and
  21:C:/Program Files (x86)/GNU Tools Arm Embedded/version13-3/arm-none-eabi/include/c++/13.3.1/bits\unordered_map.h **** // a copy of the GCC Runtime Library Exception along with this program;
  22:C:/Program Files (x86)/GNU Tools Arm Embedded/version13-3/arm-none-eabi/include/c++/13.3.1/bits\unordered_map.h **** // see the files COPYING3 and COPYING.RUNTIME respectively.  If not, see
  23:C:/Program Files (x86)/GNU Tools Arm Embedded/version13-3/arm-none-eabi/include/c++/13.3.1/bits\unordered_map.h **** // <http://www.gnu.org/licenses/>.
  24:C:/Program Files (x86)/GNU Tools Arm Embedded/version13-3/arm-none-eabi/include/c++/13.3.1/bits\unordered_map.h **** 
  25:C:/Program Files (x86)/GNU Tools Arm Embedded/version13-3/arm-none-eabi/include/c++/13.3.1/bits\unordered_map.h **** /** @file bits/unordered_map.h
  26:C:/Program Files (x86)/GNU Tools Arm Embedded/version13-3/arm-none-eabi/include/c++/13.3.1/bits\unordered_map.h ****  *  This is an internal header file, included by other library headers.
  27:C:/Program Files (x86)/GNU Tools Arm Embedded/version13-3/arm-none-eabi/include/c++/13.3.1/bits\unordered_map.h ****  *  Do not attempt to use it directly. @headername{unordered_map}
  28:C:/Program Files (x86)/GNU Tools Arm Embedded/version13-3/arm-none-eabi/include/c++/13.3.1/bits\unordered_map.h ****  */
  29:C:/Program Files (x86)/GNU Tools Arm Embedded/version13-3/arm-none-eabi/include/c++/13.3.1/bits\unordered_map.h **** 
  30:C:/Program Files (x86)/GNU Tools Arm Embedded/version13-3/arm-none-eabi/include/c++/13.3.1/bits\unordered_map.h **** #ifndef _UNORDERED_MAP_H
  31:C:/Program Files (x86)/GNU Tools Arm Embedded/version13-3/arm-none-eabi/include/c++/13.3.1/bits\unordered_map.h **** #define _UNORDERED_MAP_H
  32:C:/Program Files (x86)/GNU Tools Arm Embedded/version13-3/arm-none-eabi/include/c++/13.3.1/bits\unordered_map.h **** 
  33:C:/Program Files (x86)/GNU Tools Arm Embedded/version13-3/arm-none-eabi/include/c++/13.3.1/bits\unordered_map.h **** #include <bits/hashtable.h>
  34:C:/Program Files (x86)/GNU Tools Arm Embedded/version13-3/arm-none-eabi/include/c++/13.3.1/bits\unordered_map.h **** #include <bits/allocator.h>
  35:C:/Program Files (x86)/GNU Tools Arm Embedded/version13-3/arm-none-eabi/include/c++/13.3.1/bits\unordered_map.h **** #include <bits/functional_hash.h> // hash
  36:C:/Program Files (x86)/GNU Tools Arm Embedded/version13-3/arm-none-eabi/include/c++/13.3.1/bits\unordered_map.h **** #include <bits/stl_function.h>    // equal_to
  37:C:/Program Files (x86)/GNU Tools Arm Embedded/version13-3/arm-none-eabi/include/c++/13.3.1/bits\unordered_map.h **** 
  38:C:/Program Files (x86)/GNU Tools Arm Embedded/version13-3/arm-none-eabi/include/c++/13.3.1/bits\unordered_map.h **** namespace std _GLIBCXX_VISIBILITY(default)
  39:C:/Program Files (x86)/GNU Tools Arm Embedded/version13-3/arm-none-eabi/include/c++/13.3.1/bits\unordered_map.h **** {
  40:C:/Program Files (x86)/GNU Tools Arm Embedded/version13-3/arm-none-eabi/include/c++/13.3.1/bits\unordered_map.h **** _GLIBCXX_BEGIN_NAMESPACE_VERSION
  41:C:/Program Files (x86)/GNU Tools Arm Embedded/version13-3/arm-none-eabi/include/c++/13.3.1/bits\unordered_map.h **** _GLIBCXX_BEGIN_NAMESPACE_CONTAINER
  42:C:/Program Files (x86)/GNU Tools Arm Embedded/version13-3/arm-none-eabi/include/c++/13.3.1/bits\unordered_map.h **** 
  43:C:/Program Files (x86)/GNU Tools Arm Embedded/version13-3/arm-none-eabi/include/c++/13.3.1/bits\unordered_map.h ****   /// Base types for unordered_map.
  44:C:/Program Files (x86)/GNU Tools Arm Embedded/version13-3/arm-none-eabi/include/c++/13.3.1/bits\unordered_map.h ****   template<bool _Cache>
  45:C:/Program Files (x86)/GNU Tools Arm Embedded/version13-3/arm-none-eabi/include/c++/13.3.1/bits\unordered_map.h ****     using __umap_traits = __detail::_Hashtable_traits<_Cache, false, true>;
  46:C:/Program Files (x86)/GNU Tools Arm Embedded/version13-3/arm-none-eabi/include/c++/13.3.1/bits\unordered_map.h **** 
  47:C:/Program Files (x86)/GNU Tools Arm Embedded/version13-3/arm-none-eabi/include/c++/13.3.1/bits\unordered_map.h ****   template<typename _Key,
  48:C:/Program Files (x86)/GNU Tools Arm Embedded/version13-3/arm-none-eabi/include/c++/13.3.1/bits\unordered_map.h **** 	   typename _Tp,
  49:C:/Program Files (x86)/GNU Tools Arm Embedded/version13-3/arm-none-eabi/include/c++/13.3.1/bits\unordered_map.h **** 	   typename _Hash = hash<_Key>,
  50:C:/Program Files (x86)/GNU Tools Arm Embedded/version13-3/arm-none-eabi/include/c++/13.3.1/bits\unordered_map.h **** 	   typename _Pred = std::equal_to<_Key>,
  51:C:/Program Files (x86)/GNU Tools Arm Embedded/version13-3/arm-none-eabi/include/c++/13.3.1/bits\unordered_map.h **** 	   typename _Alloc = std::allocator<std::pair<const _Key, _Tp> >,
  52:C:/Program Files (x86)/GNU Tools Arm Embedded/version13-3/arm-none-eabi/include/c++/13.3.1/bits\unordered_map.h **** 	   typename _Tr = __umap_traits<__cache_default<_Key, _Hash>::value>>
  53:C:/Program Files (x86)/GNU Tools Arm Embedded/version13-3/arm-none-eabi/include/c++/13.3.1/bits\unordered_map.h ****     using __umap_hashtable = _Hashtable<_Key, std::pair<const _Key, _Tp>,
  54:C:/Program Files (x86)/GNU Tools Arm Embedded/version13-3/arm-none-eabi/include/c++/13.3.1/bits\unordered_map.h ****                                         _Alloc, __detail::_Select1st,
  55:C:/Program Files (x86)/GNU Tools Arm Embedded/version13-3/arm-none-eabi/include/c++/13.3.1/bits\unordered_map.h **** 				        _Pred, _Hash,
  56:C:/Program Files (x86)/GNU Tools Arm Embedded/version13-3/arm-none-eabi/include/c++/13.3.1/bits\unordered_map.h **** 				        __detail::_Mod_range_hashing,
  57:C:/Program Files (x86)/GNU Tools Arm Embedded/version13-3/arm-none-eabi/include/c++/13.3.1/bits\unordered_map.h **** 				        __detail::_Default_ranged_hash,
  58:C:/Program Files (x86)/GNU Tools Arm Embedded/version13-3/arm-none-eabi/include/c++/13.3.1/bits\unordered_map.h **** 				        __detail::_Prime_rehash_policy, _Tr>;
  59:C:/Program Files (x86)/GNU Tools Arm Embedded/version13-3/arm-none-eabi/include/c++/13.3.1/bits\unordered_map.h **** 
  60:C:/Program Files (x86)/GNU Tools Arm Embedded/version13-3/arm-none-eabi/include/c++/13.3.1/bits\unordered_map.h ****   /// Base types for unordered_multimap.
  61:C:/Program Files (x86)/GNU Tools Arm Embedded/version13-3/arm-none-eabi/include/c++/13.3.1/bits\unordered_map.h ****   template<bool _Cache>
  62:C:/Program Files (x86)/GNU Tools Arm Embedded/version13-3/arm-none-eabi/include/c++/13.3.1/bits\unordered_map.h ****     using __ummap_traits = __detail::_Hashtable_traits<_Cache, false, false>;
  63:C:/Program Files (x86)/GNU Tools Arm Embedded/version13-3/arm-none-eabi/include/c++/13.3.1/bits\unordered_map.h **** 
  64:C:/Program Files (x86)/GNU Tools Arm Embedded/version13-3/arm-none-eabi/include/c++/13.3.1/bits\unordered_map.h ****   template<typename _Key,
  65:C:/Program Files (x86)/GNU Tools Arm Embedded/version13-3/arm-none-eabi/include/c++/13.3.1/bits\unordered_map.h **** 	   typename _Tp,
  66:C:/Program Files (x86)/GNU Tools Arm Embedded/version13-3/arm-none-eabi/include/c++/13.3.1/bits\unordered_map.h **** 	   typename _Hash = hash<_Key>,
  67:C:/Program Files (x86)/GNU Tools Arm Embedded/version13-3/arm-none-eabi/include/c++/13.3.1/bits\unordered_map.h **** 	   typename _Pred = std::equal_to<_Key>,
  68:C:/Program Files (x86)/GNU Tools Arm Embedded/version13-3/arm-none-eabi/include/c++/13.3.1/bits\unordered_map.h **** 	   typename _Alloc = std::allocator<std::pair<const _Key, _Tp> >,
  69:C:/Program Files (x86)/GNU Tools Arm Embedded/version13-3/arm-none-eabi/include/c++/13.3.1/bits\unordered_map.h **** 	   typename _Tr = __ummap_traits<__cache_default<_Key, _Hash>::value>>
  70:C:/Program Files (x86)/GNU Tools Arm Embedded/version13-3/arm-none-eabi/include/c++/13.3.1/bits\unordered_map.h ****     using __ummap_hashtable = _Hashtable<_Key, std::pair<const _Key, _Tp>,
  71:C:/Program Files (x86)/GNU Tools Arm Embedded/version13-3/arm-none-eabi/include/c++/13.3.1/bits\unordered_map.h **** 					 _Alloc, __detail::_Select1st,
  72:C:/Program Files (x86)/GNU Tools Arm Embedded/version13-3/arm-none-eabi/include/c++/13.3.1/bits\unordered_map.h **** 					 _Pred, _Hash,
ARM GAS  C:\Users\Owner\AppData\Local\Temp\cctnuIAx.s 			page 19


  73:C:/Program Files (x86)/GNU Tools Arm Embedded/version13-3/arm-none-eabi/include/c++/13.3.1/bits\unordered_map.h **** 					 __detail::_Mod_range_hashing,
  74:C:/Program Files (x86)/GNU Tools Arm Embedded/version13-3/arm-none-eabi/include/c++/13.3.1/bits\unordered_map.h **** 					 __detail::_Default_ranged_hash,
  75:C:/Program Files (x86)/GNU Tools Arm Embedded/version13-3/arm-none-eabi/include/c++/13.3.1/bits\unordered_map.h **** 					 __detail::_Prime_rehash_policy, _Tr>;
  76:C:/Program Files (x86)/GNU Tools Arm Embedded/version13-3/arm-none-eabi/include/c++/13.3.1/bits\unordered_map.h **** 
  77:C:/Program Files (x86)/GNU Tools Arm Embedded/version13-3/arm-none-eabi/include/c++/13.3.1/bits\unordered_map.h ****   template<class _Key, class _Tp, class _Hash, class _Pred, class _Alloc>
  78:C:/Program Files (x86)/GNU Tools Arm Embedded/version13-3/arm-none-eabi/include/c++/13.3.1/bits\unordered_map.h ****     class unordered_multimap;
  79:C:/Program Files (x86)/GNU Tools Arm Embedded/version13-3/arm-none-eabi/include/c++/13.3.1/bits\unordered_map.h **** 
  80:C:/Program Files (x86)/GNU Tools Arm Embedded/version13-3/arm-none-eabi/include/c++/13.3.1/bits\unordered_map.h ****   /**
  81:C:/Program Files (x86)/GNU Tools Arm Embedded/version13-3/arm-none-eabi/include/c++/13.3.1/bits\unordered_map.h ****    *  @brief A standard container composed of unique keys (containing
  82:C:/Program Files (x86)/GNU Tools Arm Embedded/version13-3/arm-none-eabi/include/c++/13.3.1/bits\unordered_map.h ****    *  at most one of each key value) that associates values of another type
  83:C:/Program Files (x86)/GNU Tools Arm Embedded/version13-3/arm-none-eabi/include/c++/13.3.1/bits\unordered_map.h ****    *  with the keys.
  84:C:/Program Files (x86)/GNU Tools Arm Embedded/version13-3/arm-none-eabi/include/c++/13.3.1/bits\unordered_map.h ****    *
  85:C:/Program Files (x86)/GNU Tools Arm Embedded/version13-3/arm-none-eabi/include/c++/13.3.1/bits\unordered_map.h ****    *  @ingroup unordered_associative_containers
  86:C:/Program Files (x86)/GNU Tools Arm Embedded/version13-3/arm-none-eabi/include/c++/13.3.1/bits\unordered_map.h ****    *  @headerfile unordered_map
  87:C:/Program Files (x86)/GNU Tools Arm Embedded/version13-3/arm-none-eabi/include/c++/13.3.1/bits\unordered_map.h ****    *  @since C++11
  88:C:/Program Files (x86)/GNU Tools Arm Embedded/version13-3/arm-none-eabi/include/c++/13.3.1/bits\unordered_map.h ****    *
  89:C:/Program Files (x86)/GNU Tools Arm Embedded/version13-3/arm-none-eabi/include/c++/13.3.1/bits\unordered_map.h ****    *  @tparam  _Key    Type of key objects.
  90:C:/Program Files (x86)/GNU Tools Arm Embedded/version13-3/arm-none-eabi/include/c++/13.3.1/bits\unordered_map.h ****    *  @tparam  _Tp     Type of mapped objects.
  91:C:/Program Files (x86)/GNU Tools Arm Embedded/version13-3/arm-none-eabi/include/c++/13.3.1/bits\unordered_map.h ****    *  @tparam  _Hash   Hashing function object type, defaults to hash<_Value>.
  92:C:/Program Files (x86)/GNU Tools Arm Embedded/version13-3/arm-none-eabi/include/c++/13.3.1/bits\unordered_map.h ****    *  @tparam  _Pred   Predicate function object type, defaults
  93:C:/Program Files (x86)/GNU Tools Arm Embedded/version13-3/arm-none-eabi/include/c++/13.3.1/bits\unordered_map.h ****    *                   to equal_to<_Value>.
  94:C:/Program Files (x86)/GNU Tools Arm Embedded/version13-3/arm-none-eabi/include/c++/13.3.1/bits\unordered_map.h ****    *  @tparam  _Alloc  Allocator type, defaults to 
  95:C:/Program Files (x86)/GNU Tools Arm Embedded/version13-3/arm-none-eabi/include/c++/13.3.1/bits\unordered_map.h ****    *                   std::allocator<std::pair<const _Key, _Tp>>.
  96:C:/Program Files (x86)/GNU Tools Arm Embedded/version13-3/arm-none-eabi/include/c++/13.3.1/bits\unordered_map.h ****    *
  97:C:/Program Files (x86)/GNU Tools Arm Embedded/version13-3/arm-none-eabi/include/c++/13.3.1/bits\unordered_map.h ****    *  Meets the requirements of a <a href="tables.html#65">container</a>, and
  98:C:/Program Files (x86)/GNU Tools Arm Embedded/version13-3/arm-none-eabi/include/c++/13.3.1/bits\unordered_map.h ****    *  <a href="tables.html#xx">unordered associative container</a>
  99:C:/Program Files (x86)/GNU Tools Arm Embedded/version13-3/arm-none-eabi/include/c++/13.3.1/bits\unordered_map.h ****    *
 100:C:/Program Files (x86)/GNU Tools Arm Embedded/version13-3/arm-none-eabi/include/c++/13.3.1/bits\unordered_map.h ****    * The resulting value type of the container is std::pair<const _Key, _Tp>.
 101:C:/Program Files (x86)/GNU Tools Arm Embedded/version13-3/arm-none-eabi/include/c++/13.3.1/bits\unordered_map.h ****    *
 102:C:/Program Files (x86)/GNU Tools Arm Embedded/version13-3/arm-none-eabi/include/c++/13.3.1/bits\unordered_map.h ****    *  Base is _Hashtable, dispatched at compile time via template
 103:C:/Program Files (x86)/GNU Tools Arm Embedded/version13-3/arm-none-eabi/include/c++/13.3.1/bits\unordered_map.h ****    *  alias __umap_hashtable.
 104:C:/Program Files (x86)/GNU Tools Arm Embedded/version13-3/arm-none-eabi/include/c++/13.3.1/bits\unordered_map.h ****    */
 105:C:/Program Files (x86)/GNU Tools Arm Embedded/version13-3/arm-none-eabi/include/c++/13.3.1/bits\unordered_map.h ****   template<typename _Key, typename _Tp,
 106:C:/Program Files (x86)/GNU Tools Arm Embedded/version13-3/arm-none-eabi/include/c++/13.3.1/bits\unordered_map.h **** 	   typename _Hash = hash<_Key>,
 107:C:/Program Files (x86)/GNU Tools Arm Embedded/version13-3/arm-none-eabi/include/c++/13.3.1/bits\unordered_map.h **** 	   typename _Pred = equal_to<_Key>,
 108:C:/Program Files (x86)/GNU Tools Arm Embedded/version13-3/arm-none-eabi/include/c++/13.3.1/bits\unordered_map.h **** 	   typename _Alloc = allocator<std::pair<const _Key, _Tp>>>
 109:C:/Program Files (x86)/GNU Tools Arm Embedded/version13-3/arm-none-eabi/include/c++/13.3.1/bits\unordered_map.h ****     class unordered_map
 110:C:/Program Files (x86)/GNU Tools Arm Embedded/version13-3/arm-none-eabi/include/c++/13.3.1/bits\unordered_map.h ****     {
 111:C:/Program Files (x86)/GNU Tools Arm Embedded/version13-3/arm-none-eabi/include/c++/13.3.1/bits\unordered_map.h ****       typedef __umap_hashtable<_Key, _Tp, _Hash, _Pred, _Alloc>  _Hashtable;
 112:C:/Program Files (x86)/GNU Tools Arm Embedded/version13-3/arm-none-eabi/include/c++/13.3.1/bits\unordered_map.h ****       _Hashtable _M_h;
 113:C:/Program Files (x86)/GNU Tools Arm Embedded/version13-3/arm-none-eabi/include/c++/13.3.1/bits\unordered_map.h **** 
 114:C:/Program Files (x86)/GNU Tools Arm Embedded/version13-3/arm-none-eabi/include/c++/13.3.1/bits\unordered_map.h ****     public:
 115:C:/Program Files (x86)/GNU Tools Arm Embedded/version13-3/arm-none-eabi/include/c++/13.3.1/bits\unordered_map.h ****       // typedefs:
 116:C:/Program Files (x86)/GNU Tools Arm Embedded/version13-3/arm-none-eabi/include/c++/13.3.1/bits\unordered_map.h ****       ///@{
 117:C:/Program Files (x86)/GNU Tools Arm Embedded/version13-3/arm-none-eabi/include/c++/13.3.1/bits\unordered_map.h ****       /// Public typedefs.
 118:C:/Program Files (x86)/GNU Tools Arm Embedded/version13-3/arm-none-eabi/include/c++/13.3.1/bits\unordered_map.h ****       typedef typename _Hashtable::key_type	key_type;
 119:C:/Program Files (x86)/GNU Tools Arm Embedded/version13-3/arm-none-eabi/include/c++/13.3.1/bits\unordered_map.h ****       typedef typename _Hashtable::value_type	value_type;
 120:C:/Program Files (x86)/GNU Tools Arm Embedded/version13-3/arm-none-eabi/include/c++/13.3.1/bits\unordered_map.h ****       typedef typename _Hashtable::mapped_type	mapped_type;
 121:C:/Program Files (x86)/GNU Tools Arm Embedded/version13-3/arm-none-eabi/include/c++/13.3.1/bits\unordered_map.h ****       typedef typename _Hashtable::hasher	hasher;
 122:C:/Program Files (x86)/GNU Tools Arm Embedded/version13-3/arm-none-eabi/include/c++/13.3.1/bits\unordered_map.h ****       typedef typename _Hashtable::key_equal	key_equal;
 123:C:/Program Files (x86)/GNU Tools Arm Embedded/version13-3/arm-none-eabi/include/c++/13.3.1/bits\unordered_map.h ****       typedef typename _Hashtable::allocator_type allocator_type;
 124:C:/Program Files (x86)/GNU Tools Arm Embedded/version13-3/arm-none-eabi/include/c++/13.3.1/bits\unordered_map.h ****       ///@}
 125:C:/Program Files (x86)/GNU Tools Arm Embedded/version13-3/arm-none-eabi/include/c++/13.3.1/bits\unordered_map.h **** 
 126:C:/Program Files (x86)/GNU Tools Arm Embedded/version13-3/arm-none-eabi/include/c++/13.3.1/bits\unordered_map.h ****       ///@{
 127:C:/Program Files (x86)/GNU Tools Arm Embedded/version13-3/arm-none-eabi/include/c++/13.3.1/bits\unordered_map.h ****       ///  Iterator-related typedefs.
 128:C:/Program Files (x86)/GNU Tools Arm Embedded/version13-3/arm-none-eabi/include/c++/13.3.1/bits\unordered_map.h ****       typedef typename _Hashtable::pointer		pointer;
 129:C:/Program Files (x86)/GNU Tools Arm Embedded/version13-3/arm-none-eabi/include/c++/13.3.1/bits\unordered_map.h ****       typedef typename _Hashtable::const_pointer	const_pointer;
ARM GAS  C:\Users\Owner\AppData\Local\Temp\cctnuIAx.s 			page 20


 130:C:/Program Files (x86)/GNU Tools Arm Embedded/version13-3/arm-none-eabi/include/c++/13.3.1/bits\unordered_map.h ****       typedef typename _Hashtable::reference		reference;
 131:C:/Program Files (x86)/GNU Tools Arm Embedded/version13-3/arm-none-eabi/include/c++/13.3.1/bits\unordered_map.h ****       typedef typename _Hashtable::const_reference	const_reference;
 132:C:/Program Files (x86)/GNU Tools Arm Embedded/version13-3/arm-none-eabi/include/c++/13.3.1/bits\unordered_map.h ****       typedef typename _Hashtable::iterator		iterator;
 133:C:/Program Files (x86)/GNU Tools Arm Embedded/version13-3/arm-none-eabi/include/c++/13.3.1/bits\unordered_map.h ****       typedef typename _Hashtable::const_iterator	const_iterator;
 134:C:/Program Files (x86)/GNU Tools Arm Embedded/version13-3/arm-none-eabi/include/c++/13.3.1/bits\unordered_map.h ****       typedef typename _Hashtable::local_iterator	local_iterator;
 135:C:/Program Files (x86)/GNU Tools Arm Embedded/version13-3/arm-none-eabi/include/c++/13.3.1/bits\unordered_map.h ****       typedef typename _Hashtable::const_local_iterator	const_local_iterator;
 136:C:/Program Files (x86)/GNU Tools Arm Embedded/version13-3/arm-none-eabi/include/c++/13.3.1/bits\unordered_map.h ****       typedef typename _Hashtable::size_type		size_type;
 137:C:/Program Files (x86)/GNU Tools Arm Embedded/version13-3/arm-none-eabi/include/c++/13.3.1/bits\unordered_map.h ****       typedef typename _Hashtable::difference_type	difference_type;
 138:C:/Program Files (x86)/GNU Tools Arm Embedded/version13-3/arm-none-eabi/include/c++/13.3.1/bits\unordered_map.h ****       ///@}
 139:C:/Program Files (x86)/GNU Tools Arm Embedded/version13-3/arm-none-eabi/include/c++/13.3.1/bits\unordered_map.h **** 
 140:C:/Program Files (x86)/GNU Tools Arm Embedded/version13-3/arm-none-eabi/include/c++/13.3.1/bits\unordered_map.h **** #if __cplusplus > 201402L
 141:C:/Program Files (x86)/GNU Tools Arm Embedded/version13-3/arm-none-eabi/include/c++/13.3.1/bits\unordered_map.h ****       using node_type = typename _Hashtable::node_type;
 142:C:/Program Files (x86)/GNU Tools Arm Embedded/version13-3/arm-none-eabi/include/c++/13.3.1/bits\unordered_map.h ****       using insert_return_type = typename _Hashtable::insert_return_type;
 143:C:/Program Files (x86)/GNU Tools Arm Embedded/version13-3/arm-none-eabi/include/c++/13.3.1/bits\unordered_map.h **** #endif
 144:C:/Program Files (x86)/GNU Tools Arm Embedded/version13-3/arm-none-eabi/include/c++/13.3.1/bits\unordered_map.h **** 
 145:C:/Program Files (x86)/GNU Tools Arm Embedded/version13-3/arm-none-eabi/include/c++/13.3.1/bits\unordered_map.h ****       //construct/destroy/copy
 146:C:/Program Files (x86)/GNU Tools Arm Embedded/version13-3/arm-none-eabi/include/c++/13.3.1/bits\unordered_map.h **** 
 147:C:/Program Files (x86)/GNU Tools Arm Embedded/version13-3/arm-none-eabi/include/c++/13.3.1/bits\unordered_map.h ****       /// Default constructor.
 148:C:/Program Files (x86)/GNU Tools Arm Embedded/version13-3/arm-none-eabi/include/c++/13.3.1/bits\unordered_map.h ****       unordered_map() = default;
 101              		.loc 4 148 7 is_stmt 1 view .LVU9
 102              	.LBB3807:
 103              	.LBI3786:
 104              		.loc 2 530 7 view .LVU10
 105              	.LBB3803:
 106              	.LBB3791:
 107              	.LBI3791:
 314:C:/Program Files (x86)/GNU Tools Arm Embedded/version13-3/arm-none-eabi/include/c++/13.3.1/bits\hashtable_policy.h **** 
 315:C:/Program Files (x86)/GNU Tools Arm Embedded/version13-3/arm-none-eabi/include/c++/13.3.1/bits\hashtable_policy.h ****     _Hash_node_base(_Hash_node_base* __next) noexcept : _M_nxt(__next) { }
 316:C:/Program Files (x86)/GNU Tools Arm Embedded/version13-3/arm-none-eabi/include/c++/13.3.1/bits\hashtable_policy.h ****   };
 317:C:/Program Files (x86)/GNU Tools Arm Embedded/version13-3/arm-none-eabi/include/c++/13.3.1/bits\hashtable_policy.h **** 
 318:C:/Program Files (x86)/GNU Tools Arm Embedded/version13-3/arm-none-eabi/include/c++/13.3.1/bits\hashtable_policy.h ****   /**
 319:C:/Program Files (x86)/GNU Tools Arm Embedded/version13-3/arm-none-eabi/include/c++/13.3.1/bits\hashtable_policy.h ****    *  struct _Hash_node_value_base
 320:C:/Program Files (x86)/GNU Tools Arm Embedded/version13-3/arm-none-eabi/include/c++/13.3.1/bits\hashtable_policy.h ****    *
 321:C:/Program Files (x86)/GNU Tools Arm Embedded/version13-3/arm-none-eabi/include/c++/13.3.1/bits\hashtable_policy.h ****    *  Node type with the value to store.
 322:C:/Program Files (x86)/GNU Tools Arm Embedded/version13-3/arm-none-eabi/include/c++/13.3.1/bits\hashtable_policy.h ****    */
 323:C:/Program Files (x86)/GNU Tools Arm Embedded/version13-3/arm-none-eabi/include/c++/13.3.1/bits\hashtable_policy.h ****   template<typename _Value>
 324:C:/Program Files (x86)/GNU Tools Arm Embedded/version13-3/arm-none-eabi/include/c++/13.3.1/bits\hashtable_policy.h ****     struct _Hash_node_value_base
 325:C:/Program Files (x86)/GNU Tools Arm Embedded/version13-3/arm-none-eabi/include/c++/13.3.1/bits\hashtable_policy.h ****     {
 326:C:/Program Files (x86)/GNU Tools Arm Embedded/version13-3/arm-none-eabi/include/c++/13.3.1/bits\hashtable_policy.h ****       typedef _Value value_type;
 327:C:/Program Files (x86)/GNU Tools Arm Embedded/version13-3/arm-none-eabi/include/c++/13.3.1/bits\hashtable_policy.h **** 
 328:C:/Program Files (x86)/GNU Tools Arm Embedded/version13-3/arm-none-eabi/include/c++/13.3.1/bits\hashtable_policy.h ****       __gnu_cxx::__aligned_buffer<_Value> _M_storage;
 329:C:/Program Files (x86)/GNU Tools Arm Embedded/version13-3/arm-none-eabi/include/c++/13.3.1/bits\hashtable_policy.h **** 
 330:C:/Program Files (x86)/GNU Tools Arm Embedded/version13-3/arm-none-eabi/include/c++/13.3.1/bits\hashtable_policy.h ****       [[__gnu__::__always_inline__]]
 331:C:/Program Files (x86)/GNU Tools Arm Embedded/version13-3/arm-none-eabi/include/c++/13.3.1/bits\hashtable_policy.h ****       _Value*
 332:C:/Program Files (x86)/GNU Tools Arm Embedded/version13-3/arm-none-eabi/include/c++/13.3.1/bits\hashtable_policy.h ****       _M_valptr() noexcept
 333:C:/Program Files (x86)/GNU Tools Arm Embedded/version13-3/arm-none-eabi/include/c++/13.3.1/bits\hashtable_policy.h ****       { return _M_storage._M_ptr(); }
 334:C:/Program Files (x86)/GNU Tools Arm Embedded/version13-3/arm-none-eabi/include/c++/13.3.1/bits\hashtable_policy.h **** 
 335:C:/Program Files (x86)/GNU Tools Arm Embedded/version13-3/arm-none-eabi/include/c++/13.3.1/bits\hashtable_policy.h ****       [[__gnu__::__always_inline__]]
 336:C:/Program Files (x86)/GNU Tools Arm Embedded/version13-3/arm-none-eabi/include/c++/13.3.1/bits\hashtable_policy.h ****       const _Value*
 337:C:/Program Files (x86)/GNU Tools Arm Embedded/version13-3/arm-none-eabi/include/c++/13.3.1/bits\hashtable_policy.h ****       _M_valptr() const noexcept
 338:C:/Program Files (x86)/GNU Tools Arm Embedded/version13-3/arm-none-eabi/include/c++/13.3.1/bits\hashtable_policy.h ****       { return _M_storage._M_ptr(); }
 339:C:/Program Files (x86)/GNU Tools Arm Embedded/version13-3/arm-none-eabi/include/c++/13.3.1/bits\hashtable_policy.h **** 
 340:C:/Program Files (x86)/GNU Tools Arm Embedded/version13-3/arm-none-eabi/include/c++/13.3.1/bits\hashtable_policy.h ****       [[__gnu__::__always_inline__]]
 341:C:/Program Files (x86)/GNU Tools Arm Embedded/version13-3/arm-none-eabi/include/c++/13.3.1/bits\hashtable_policy.h ****       _Value&
 342:C:/Program Files (x86)/GNU Tools Arm Embedded/version13-3/arm-none-eabi/include/c++/13.3.1/bits\hashtable_policy.h ****       _M_v() noexcept
 343:C:/Program Files (x86)/GNU Tools Arm Embedded/version13-3/arm-none-eabi/include/c++/13.3.1/bits\hashtable_policy.h ****       { return *_M_valptr(); }
 344:C:/Program Files (x86)/GNU Tools Arm Embedded/version13-3/arm-none-eabi/include/c++/13.3.1/bits\hashtable_policy.h **** 
ARM GAS  C:\Users\Owner\AppData\Local\Temp\cctnuIAx.s 			page 21


 345:C:/Program Files (x86)/GNU Tools Arm Embedded/version13-3/arm-none-eabi/include/c++/13.3.1/bits\hashtable_policy.h ****       [[__gnu__::__always_inline__]]
 346:C:/Program Files (x86)/GNU Tools Arm Embedded/version13-3/arm-none-eabi/include/c++/13.3.1/bits\hashtable_policy.h ****       const _Value&
 347:C:/Program Files (x86)/GNU Tools Arm Embedded/version13-3/arm-none-eabi/include/c++/13.3.1/bits\hashtable_policy.h ****       _M_v() const noexcept
 348:C:/Program Files (x86)/GNU Tools Arm Embedded/version13-3/arm-none-eabi/include/c++/13.3.1/bits\hashtable_policy.h ****       { return *_M_valptr(); }
 349:C:/Program Files (x86)/GNU Tools Arm Embedded/version13-3/arm-none-eabi/include/c++/13.3.1/bits\hashtable_policy.h ****     };
 350:C:/Program Files (x86)/GNU Tools Arm Embedded/version13-3/arm-none-eabi/include/c++/13.3.1/bits\hashtable_policy.h **** 
 351:C:/Program Files (x86)/GNU Tools Arm Embedded/version13-3/arm-none-eabi/include/c++/13.3.1/bits\hashtable_policy.h ****   /**
 352:C:/Program Files (x86)/GNU Tools Arm Embedded/version13-3/arm-none-eabi/include/c++/13.3.1/bits\hashtable_policy.h ****    *  Primary template struct _Hash_node_code_cache.
 353:C:/Program Files (x86)/GNU Tools Arm Embedded/version13-3/arm-none-eabi/include/c++/13.3.1/bits\hashtable_policy.h ****    */
 354:C:/Program Files (x86)/GNU Tools Arm Embedded/version13-3/arm-none-eabi/include/c++/13.3.1/bits\hashtable_policy.h ****   template<bool _Cache_hash_code>
 355:C:/Program Files (x86)/GNU Tools Arm Embedded/version13-3/arm-none-eabi/include/c++/13.3.1/bits\hashtable_policy.h ****     struct _Hash_node_code_cache
 356:C:/Program Files (x86)/GNU Tools Arm Embedded/version13-3/arm-none-eabi/include/c++/13.3.1/bits\hashtable_policy.h ****     { };
 357:C:/Program Files (x86)/GNU Tools Arm Embedded/version13-3/arm-none-eabi/include/c++/13.3.1/bits\hashtable_policy.h **** 
 358:C:/Program Files (x86)/GNU Tools Arm Embedded/version13-3/arm-none-eabi/include/c++/13.3.1/bits\hashtable_policy.h ****   /**
 359:C:/Program Files (x86)/GNU Tools Arm Embedded/version13-3/arm-none-eabi/include/c++/13.3.1/bits\hashtable_policy.h ****    *  Specialization for node with cache, struct _Hash_node_code_cache.
 360:C:/Program Files (x86)/GNU Tools Arm Embedded/version13-3/arm-none-eabi/include/c++/13.3.1/bits\hashtable_policy.h ****    */
 361:C:/Program Files (x86)/GNU Tools Arm Embedded/version13-3/arm-none-eabi/include/c++/13.3.1/bits\hashtable_policy.h ****   template<>
 362:C:/Program Files (x86)/GNU Tools Arm Embedded/version13-3/arm-none-eabi/include/c++/13.3.1/bits\hashtable_policy.h ****     struct _Hash_node_code_cache<true>
 363:C:/Program Files (x86)/GNU Tools Arm Embedded/version13-3/arm-none-eabi/include/c++/13.3.1/bits\hashtable_policy.h ****     { std::size_t  _M_hash_code; };
 364:C:/Program Files (x86)/GNU Tools Arm Embedded/version13-3/arm-none-eabi/include/c++/13.3.1/bits\hashtable_policy.h **** 
 365:C:/Program Files (x86)/GNU Tools Arm Embedded/version13-3/arm-none-eabi/include/c++/13.3.1/bits\hashtable_policy.h ****   template<typename _Value, bool _Cache_hash_code>
 366:C:/Program Files (x86)/GNU Tools Arm Embedded/version13-3/arm-none-eabi/include/c++/13.3.1/bits\hashtable_policy.h ****     struct _Hash_node_value
 367:C:/Program Files (x86)/GNU Tools Arm Embedded/version13-3/arm-none-eabi/include/c++/13.3.1/bits\hashtable_policy.h ****     : _Hash_node_value_base<_Value>
 368:C:/Program Files (x86)/GNU Tools Arm Embedded/version13-3/arm-none-eabi/include/c++/13.3.1/bits\hashtable_policy.h ****     , _Hash_node_code_cache<_Cache_hash_code>
 369:C:/Program Files (x86)/GNU Tools Arm Embedded/version13-3/arm-none-eabi/include/c++/13.3.1/bits\hashtable_policy.h ****     { };
 370:C:/Program Files (x86)/GNU Tools Arm Embedded/version13-3/arm-none-eabi/include/c++/13.3.1/bits\hashtable_policy.h **** 
 371:C:/Program Files (x86)/GNU Tools Arm Embedded/version13-3/arm-none-eabi/include/c++/13.3.1/bits\hashtable_policy.h ****   /**
 372:C:/Program Files (x86)/GNU Tools Arm Embedded/version13-3/arm-none-eabi/include/c++/13.3.1/bits\hashtable_policy.h ****    *  Primary template struct _Hash_node.
 373:C:/Program Files (x86)/GNU Tools Arm Embedded/version13-3/arm-none-eabi/include/c++/13.3.1/bits\hashtable_policy.h ****    */
 374:C:/Program Files (x86)/GNU Tools Arm Embedded/version13-3/arm-none-eabi/include/c++/13.3.1/bits\hashtable_policy.h ****   template<typename _Value, bool _Cache_hash_code>
 375:C:/Program Files (x86)/GNU Tools Arm Embedded/version13-3/arm-none-eabi/include/c++/13.3.1/bits\hashtable_policy.h ****     struct _Hash_node
 376:C:/Program Files (x86)/GNU Tools Arm Embedded/version13-3/arm-none-eabi/include/c++/13.3.1/bits\hashtable_policy.h ****     : _Hash_node_base
 377:C:/Program Files (x86)/GNU Tools Arm Embedded/version13-3/arm-none-eabi/include/c++/13.3.1/bits\hashtable_policy.h ****     , _Hash_node_value<_Value, _Cache_hash_code>
 378:C:/Program Files (x86)/GNU Tools Arm Embedded/version13-3/arm-none-eabi/include/c++/13.3.1/bits\hashtable_policy.h ****     {
 379:C:/Program Files (x86)/GNU Tools Arm Embedded/version13-3/arm-none-eabi/include/c++/13.3.1/bits\hashtable_policy.h ****       _Hash_node*
 380:C:/Program Files (x86)/GNU Tools Arm Embedded/version13-3/arm-none-eabi/include/c++/13.3.1/bits\hashtable_policy.h ****       _M_next() const noexcept
 381:C:/Program Files (x86)/GNU Tools Arm Embedded/version13-3/arm-none-eabi/include/c++/13.3.1/bits\hashtable_policy.h ****       { return static_cast<_Hash_node*>(this->_M_nxt); }
 382:C:/Program Files (x86)/GNU Tools Arm Embedded/version13-3/arm-none-eabi/include/c++/13.3.1/bits\hashtable_policy.h ****     };
 383:C:/Program Files (x86)/GNU Tools Arm Embedded/version13-3/arm-none-eabi/include/c++/13.3.1/bits\hashtable_policy.h **** 
 384:C:/Program Files (x86)/GNU Tools Arm Embedded/version13-3/arm-none-eabi/include/c++/13.3.1/bits\hashtable_policy.h ****   /// Base class for node iterators.
 385:C:/Program Files (x86)/GNU Tools Arm Embedded/version13-3/arm-none-eabi/include/c++/13.3.1/bits\hashtable_policy.h ****   template<typename _Value, bool _Cache_hash_code>
 386:C:/Program Files (x86)/GNU Tools Arm Embedded/version13-3/arm-none-eabi/include/c++/13.3.1/bits\hashtable_policy.h ****     struct _Node_iterator_base
 387:C:/Program Files (x86)/GNU Tools Arm Embedded/version13-3/arm-none-eabi/include/c++/13.3.1/bits\hashtable_policy.h ****     {
 388:C:/Program Files (x86)/GNU Tools Arm Embedded/version13-3/arm-none-eabi/include/c++/13.3.1/bits\hashtable_policy.h ****       using __node_type = _Hash_node<_Value, _Cache_hash_code>;
 389:C:/Program Files (x86)/GNU Tools Arm Embedded/version13-3/arm-none-eabi/include/c++/13.3.1/bits\hashtable_policy.h **** 
 390:C:/Program Files (x86)/GNU Tools Arm Embedded/version13-3/arm-none-eabi/include/c++/13.3.1/bits\hashtable_policy.h ****       __node_type* _M_cur;
 391:C:/Program Files (x86)/GNU Tools Arm Embedded/version13-3/arm-none-eabi/include/c++/13.3.1/bits\hashtable_policy.h **** 
 392:C:/Program Files (x86)/GNU Tools Arm Embedded/version13-3/arm-none-eabi/include/c++/13.3.1/bits\hashtable_policy.h ****       _Node_iterator_base() : _M_cur(nullptr) { }
 393:C:/Program Files (x86)/GNU Tools Arm Embedded/version13-3/arm-none-eabi/include/c++/13.3.1/bits\hashtable_policy.h ****       _Node_iterator_base(__node_type* __p) noexcept
 394:C:/Program Files (x86)/GNU Tools Arm Embedded/version13-3/arm-none-eabi/include/c++/13.3.1/bits\hashtable_policy.h ****       : _M_cur(__p) { }
 395:C:/Program Files (x86)/GNU Tools Arm Embedded/version13-3/arm-none-eabi/include/c++/13.3.1/bits\hashtable_policy.h **** 
 396:C:/Program Files (x86)/GNU Tools Arm Embedded/version13-3/arm-none-eabi/include/c++/13.3.1/bits\hashtable_policy.h ****       void
 397:C:/Program Files (x86)/GNU Tools Arm Embedded/version13-3/arm-none-eabi/include/c++/13.3.1/bits\hashtable_policy.h ****       _M_incr() noexcept
 398:C:/Program Files (x86)/GNU Tools Arm Embedded/version13-3/arm-none-eabi/include/c++/13.3.1/bits\hashtable_policy.h ****       { _M_cur = _M_cur->_M_next(); }
 399:C:/Program Files (x86)/GNU Tools Arm Embedded/version13-3/arm-none-eabi/include/c++/13.3.1/bits\hashtable_policy.h **** 
 400:C:/Program Files (x86)/GNU Tools Arm Embedded/version13-3/arm-none-eabi/include/c++/13.3.1/bits\hashtable_policy.h ****       friend bool
 401:C:/Program Files (x86)/GNU Tools Arm Embedded/version13-3/arm-none-eabi/include/c++/13.3.1/bits\hashtable_policy.h ****       operator==(const _Node_iterator_base& __x, const _Node_iterator_base& __y)
ARM GAS  C:\Users\Owner\AppData\Local\Temp\cctnuIAx.s 			page 22


 402:C:/Program Files (x86)/GNU Tools Arm Embedded/version13-3/arm-none-eabi/include/c++/13.3.1/bits\hashtable_policy.h ****       noexcept
 403:C:/Program Files (x86)/GNU Tools Arm Embedded/version13-3/arm-none-eabi/include/c++/13.3.1/bits\hashtable_policy.h ****       { return __x._M_cur == __y._M_cur; }
 404:C:/Program Files (x86)/GNU Tools Arm Embedded/version13-3/arm-none-eabi/include/c++/13.3.1/bits\hashtable_policy.h **** 
 405:C:/Program Files (x86)/GNU Tools Arm Embedded/version13-3/arm-none-eabi/include/c++/13.3.1/bits\hashtable_policy.h **** #if __cpp_impl_three_way_comparison < 201907L
 406:C:/Program Files (x86)/GNU Tools Arm Embedded/version13-3/arm-none-eabi/include/c++/13.3.1/bits\hashtable_policy.h ****       friend bool
 407:C:/Program Files (x86)/GNU Tools Arm Embedded/version13-3/arm-none-eabi/include/c++/13.3.1/bits\hashtable_policy.h ****       operator!=(const _Node_iterator_base& __x, const _Node_iterator_base& __y)
 408:C:/Program Files (x86)/GNU Tools Arm Embedded/version13-3/arm-none-eabi/include/c++/13.3.1/bits\hashtable_policy.h ****       noexcept
 409:C:/Program Files (x86)/GNU Tools Arm Embedded/version13-3/arm-none-eabi/include/c++/13.3.1/bits\hashtable_policy.h ****       { return __x._M_cur != __y._M_cur; }
 410:C:/Program Files (x86)/GNU Tools Arm Embedded/version13-3/arm-none-eabi/include/c++/13.3.1/bits\hashtable_policy.h **** #endif
 411:C:/Program Files (x86)/GNU Tools Arm Embedded/version13-3/arm-none-eabi/include/c++/13.3.1/bits\hashtable_policy.h ****     };
 412:C:/Program Files (x86)/GNU Tools Arm Embedded/version13-3/arm-none-eabi/include/c++/13.3.1/bits\hashtable_policy.h **** 
 413:C:/Program Files (x86)/GNU Tools Arm Embedded/version13-3/arm-none-eabi/include/c++/13.3.1/bits\hashtable_policy.h ****   /// Node iterators, used to iterate through all the hashtable.
 414:C:/Program Files (x86)/GNU Tools Arm Embedded/version13-3/arm-none-eabi/include/c++/13.3.1/bits\hashtable_policy.h ****   template<typename _Value, bool __constant_iterators, bool __cache>
 415:C:/Program Files (x86)/GNU Tools Arm Embedded/version13-3/arm-none-eabi/include/c++/13.3.1/bits\hashtable_policy.h ****     struct _Node_iterator
 416:C:/Program Files (x86)/GNU Tools Arm Embedded/version13-3/arm-none-eabi/include/c++/13.3.1/bits\hashtable_policy.h ****     : public _Node_iterator_base<_Value, __cache>
 417:C:/Program Files (x86)/GNU Tools Arm Embedded/version13-3/arm-none-eabi/include/c++/13.3.1/bits\hashtable_policy.h ****     {
 418:C:/Program Files (x86)/GNU Tools Arm Embedded/version13-3/arm-none-eabi/include/c++/13.3.1/bits\hashtable_policy.h ****     private:
 419:C:/Program Files (x86)/GNU Tools Arm Embedded/version13-3/arm-none-eabi/include/c++/13.3.1/bits\hashtable_policy.h ****       using __base_type = _Node_iterator_base<_Value, __cache>;
 420:C:/Program Files (x86)/GNU Tools Arm Embedded/version13-3/arm-none-eabi/include/c++/13.3.1/bits\hashtable_policy.h ****       using __node_type = typename __base_type::__node_type;
 421:C:/Program Files (x86)/GNU Tools Arm Embedded/version13-3/arm-none-eabi/include/c++/13.3.1/bits\hashtable_policy.h **** 
 422:C:/Program Files (x86)/GNU Tools Arm Embedded/version13-3/arm-none-eabi/include/c++/13.3.1/bits\hashtable_policy.h ****     public:
 423:C:/Program Files (x86)/GNU Tools Arm Embedded/version13-3/arm-none-eabi/include/c++/13.3.1/bits\hashtable_policy.h ****       using value_type = _Value;
 424:C:/Program Files (x86)/GNU Tools Arm Embedded/version13-3/arm-none-eabi/include/c++/13.3.1/bits\hashtable_policy.h ****       using difference_type = std::ptrdiff_t;
 425:C:/Program Files (x86)/GNU Tools Arm Embedded/version13-3/arm-none-eabi/include/c++/13.3.1/bits\hashtable_policy.h ****       using iterator_category = std::forward_iterator_tag;
 426:C:/Program Files (x86)/GNU Tools Arm Embedded/version13-3/arm-none-eabi/include/c++/13.3.1/bits\hashtable_policy.h **** 
 427:C:/Program Files (x86)/GNU Tools Arm Embedded/version13-3/arm-none-eabi/include/c++/13.3.1/bits\hashtable_policy.h ****       using pointer = __conditional_t<__constant_iterators,
 428:C:/Program Files (x86)/GNU Tools Arm Embedded/version13-3/arm-none-eabi/include/c++/13.3.1/bits\hashtable_policy.h **** 				      const value_type*, value_type*>;
 429:C:/Program Files (x86)/GNU Tools Arm Embedded/version13-3/arm-none-eabi/include/c++/13.3.1/bits\hashtable_policy.h **** 
 430:C:/Program Files (x86)/GNU Tools Arm Embedded/version13-3/arm-none-eabi/include/c++/13.3.1/bits\hashtable_policy.h ****       using reference = __conditional_t<__constant_iterators,
 431:C:/Program Files (x86)/GNU Tools Arm Embedded/version13-3/arm-none-eabi/include/c++/13.3.1/bits\hashtable_policy.h **** 					const value_type&, value_type&>;
 432:C:/Program Files (x86)/GNU Tools Arm Embedded/version13-3/arm-none-eabi/include/c++/13.3.1/bits\hashtable_policy.h **** 
 433:C:/Program Files (x86)/GNU Tools Arm Embedded/version13-3/arm-none-eabi/include/c++/13.3.1/bits\hashtable_policy.h ****       _Node_iterator() = default;
 434:C:/Program Files (x86)/GNU Tools Arm Embedded/version13-3/arm-none-eabi/include/c++/13.3.1/bits\hashtable_policy.h **** 
 435:C:/Program Files (x86)/GNU Tools Arm Embedded/version13-3/arm-none-eabi/include/c++/13.3.1/bits\hashtable_policy.h ****       explicit
 436:C:/Program Files (x86)/GNU Tools Arm Embedded/version13-3/arm-none-eabi/include/c++/13.3.1/bits\hashtable_policy.h ****       _Node_iterator(__node_type* __p) noexcept
 437:C:/Program Files (x86)/GNU Tools Arm Embedded/version13-3/arm-none-eabi/include/c++/13.3.1/bits\hashtable_policy.h ****       : __base_type(__p) { }
 438:C:/Program Files (x86)/GNU Tools Arm Embedded/version13-3/arm-none-eabi/include/c++/13.3.1/bits\hashtable_policy.h **** 
 439:C:/Program Files (x86)/GNU Tools Arm Embedded/version13-3/arm-none-eabi/include/c++/13.3.1/bits\hashtable_policy.h ****       reference
 440:C:/Program Files (x86)/GNU Tools Arm Embedded/version13-3/arm-none-eabi/include/c++/13.3.1/bits\hashtable_policy.h ****       operator*() const noexcept
 441:C:/Program Files (x86)/GNU Tools Arm Embedded/version13-3/arm-none-eabi/include/c++/13.3.1/bits\hashtable_policy.h ****       { return this->_M_cur->_M_v(); }
 442:C:/Program Files (x86)/GNU Tools Arm Embedded/version13-3/arm-none-eabi/include/c++/13.3.1/bits\hashtable_policy.h **** 
 443:C:/Program Files (x86)/GNU Tools Arm Embedded/version13-3/arm-none-eabi/include/c++/13.3.1/bits\hashtable_policy.h ****       pointer
 444:C:/Program Files (x86)/GNU Tools Arm Embedded/version13-3/arm-none-eabi/include/c++/13.3.1/bits\hashtable_policy.h ****       operator->() const noexcept
 445:C:/Program Files (x86)/GNU Tools Arm Embedded/version13-3/arm-none-eabi/include/c++/13.3.1/bits\hashtable_policy.h ****       { return this->_M_cur->_M_valptr(); }
 446:C:/Program Files (x86)/GNU Tools Arm Embedded/version13-3/arm-none-eabi/include/c++/13.3.1/bits\hashtable_policy.h **** 
 447:C:/Program Files (x86)/GNU Tools Arm Embedded/version13-3/arm-none-eabi/include/c++/13.3.1/bits\hashtable_policy.h ****       _Node_iterator&
 448:C:/Program Files (x86)/GNU Tools Arm Embedded/version13-3/arm-none-eabi/include/c++/13.3.1/bits\hashtable_policy.h ****       operator++() noexcept
 449:C:/Program Files (x86)/GNU Tools Arm Embedded/version13-3/arm-none-eabi/include/c++/13.3.1/bits\hashtable_policy.h ****       {
 450:C:/Program Files (x86)/GNU Tools Arm Embedded/version13-3/arm-none-eabi/include/c++/13.3.1/bits\hashtable_policy.h **** 	this->_M_incr();
 451:C:/Program Files (x86)/GNU Tools Arm Embedded/version13-3/arm-none-eabi/include/c++/13.3.1/bits\hashtable_policy.h **** 	return *this;
 452:C:/Program Files (x86)/GNU Tools Arm Embedded/version13-3/arm-none-eabi/include/c++/13.3.1/bits\hashtable_policy.h ****       }
 453:C:/Program Files (x86)/GNU Tools Arm Embedded/version13-3/arm-none-eabi/include/c++/13.3.1/bits\hashtable_policy.h **** 
 454:C:/Program Files (x86)/GNU Tools Arm Embedded/version13-3/arm-none-eabi/include/c++/13.3.1/bits\hashtable_policy.h ****       _Node_iterator
 455:C:/Program Files (x86)/GNU Tools Arm Embedded/version13-3/arm-none-eabi/include/c++/13.3.1/bits\hashtable_policy.h ****       operator++(int) noexcept
 456:C:/Program Files (x86)/GNU Tools Arm Embedded/version13-3/arm-none-eabi/include/c++/13.3.1/bits\hashtable_policy.h ****       {
 457:C:/Program Files (x86)/GNU Tools Arm Embedded/version13-3/arm-none-eabi/include/c++/13.3.1/bits\hashtable_policy.h **** 	_Node_iterator __tmp(*this);
 458:C:/Program Files (x86)/GNU Tools Arm Embedded/version13-3/arm-none-eabi/include/c++/13.3.1/bits\hashtable_policy.h **** 	this->_M_incr();
ARM GAS  C:\Users\Owner\AppData\Local\Temp\cctnuIAx.s 			page 23


 459:C:/Program Files (x86)/GNU Tools Arm Embedded/version13-3/arm-none-eabi/include/c++/13.3.1/bits\hashtable_policy.h **** 	return __tmp;
 460:C:/Program Files (x86)/GNU Tools Arm Embedded/version13-3/arm-none-eabi/include/c++/13.3.1/bits\hashtable_policy.h ****       }
 461:C:/Program Files (x86)/GNU Tools Arm Embedded/version13-3/arm-none-eabi/include/c++/13.3.1/bits\hashtable_policy.h ****     };
 462:C:/Program Files (x86)/GNU Tools Arm Embedded/version13-3/arm-none-eabi/include/c++/13.3.1/bits\hashtable_policy.h **** 
 463:C:/Program Files (x86)/GNU Tools Arm Embedded/version13-3/arm-none-eabi/include/c++/13.3.1/bits\hashtable_policy.h ****   /// Node const_iterators, used to iterate through all the hashtable.
 464:C:/Program Files (x86)/GNU Tools Arm Embedded/version13-3/arm-none-eabi/include/c++/13.3.1/bits\hashtable_policy.h ****   template<typename _Value, bool __constant_iterators, bool __cache>
 465:C:/Program Files (x86)/GNU Tools Arm Embedded/version13-3/arm-none-eabi/include/c++/13.3.1/bits\hashtable_policy.h ****     struct _Node_const_iterator
 466:C:/Program Files (x86)/GNU Tools Arm Embedded/version13-3/arm-none-eabi/include/c++/13.3.1/bits\hashtable_policy.h ****     : public _Node_iterator_base<_Value, __cache>
 467:C:/Program Files (x86)/GNU Tools Arm Embedded/version13-3/arm-none-eabi/include/c++/13.3.1/bits\hashtable_policy.h ****     {
 468:C:/Program Files (x86)/GNU Tools Arm Embedded/version13-3/arm-none-eabi/include/c++/13.3.1/bits\hashtable_policy.h ****     private:
 469:C:/Program Files (x86)/GNU Tools Arm Embedded/version13-3/arm-none-eabi/include/c++/13.3.1/bits\hashtable_policy.h ****       using __base_type = _Node_iterator_base<_Value, __cache>;
 470:C:/Program Files (x86)/GNU Tools Arm Embedded/version13-3/arm-none-eabi/include/c++/13.3.1/bits\hashtable_policy.h ****       using __node_type = typename __base_type::__node_type;
 471:C:/Program Files (x86)/GNU Tools Arm Embedded/version13-3/arm-none-eabi/include/c++/13.3.1/bits\hashtable_policy.h **** 
 472:C:/Program Files (x86)/GNU Tools Arm Embedded/version13-3/arm-none-eabi/include/c++/13.3.1/bits\hashtable_policy.h ****     public:
 473:C:/Program Files (x86)/GNU Tools Arm Embedded/version13-3/arm-none-eabi/include/c++/13.3.1/bits\hashtable_policy.h ****       typedef _Value					value_type;
 474:C:/Program Files (x86)/GNU Tools Arm Embedded/version13-3/arm-none-eabi/include/c++/13.3.1/bits\hashtable_policy.h ****       typedef std::ptrdiff_t				difference_type;
 475:C:/Program Files (x86)/GNU Tools Arm Embedded/version13-3/arm-none-eabi/include/c++/13.3.1/bits\hashtable_policy.h ****       typedef std::forward_iterator_tag			iterator_category;
 476:C:/Program Files (x86)/GNU Tools Arm Embedded/version13-3/arm-none-eabi/include/c++/13.3.1/bits\hashtable_policy.h **** 
 477:C:/Program Files (x86)/GNU Tools Arm Embedded/version13-3/arm-none-eabi/include/c++/13.3.1/bits\hashtable_policy.h ****       typedef const value_type*				pointer;
 478:C:/Program Files (x86)/GNU Tools Arm Embedded/version13-3/arm-none-eabi/include/c++/13.3.1/bits\hashtable_policy.h ****       typedef const value_type&				reference;
 479:C:/Program Files (x86)/GNU Tools Arm Embedded/version13-3/arm-none-eabi/include/c++/13.3.1/bits\hashtable_policy.h **** 
 480:C:/Program Files (x86)/GNU Tools Arm Embedded/version13-3/arm-none-eabi/include/c++/13.3.1/bits\hashtable_policy.h ****       _Node_const_iterator() = default;
 481:C:/Program Files (x86)/GNU Tools Arm Embedded/version13-3/arm-none-eabi/include/c++/13.3.1/bits\hashtable_policy.h **** 
 482:C:/Program Files (x86)/GNU Tools Arm Embedded/version13-3/arm-none-eabi/include/c++/13.3.1/bits\hashtable_policy.h ****       explicit
 483:C:/Program Files (x86)/GNU Tools Arm Embedded/version13-3/arm-none-eabi/include/c++/13.3.1/bits\hashtable_policy.h ****       _Node_const_iterator(__node_type* __p) noexcept
 484:C:/Program Files (x86)/GNU Tools Arm Embedded/version13-3/arm-none-eabi/include/c++/13.3.1/bits\hashtable_policy.h ****       : __base_type(__p) { }
 485:C:/Program Files (x86)/GNU Tools Arm Embedded/version13-3/arm-none-eabi/include/c++/13.3.1/bits\hashtable_policy.h **** 
 486:C:/Program Files (x86)/GNU Tools Arm Embedded/version13-3/arm-none-eabi/include/c++/13.3.1/bits\hashtable_policy.h ****       _Node_const_iterator(const _Node_iterator<_Value, __constant_iterators,
 487:C:/Program Files (x86)/GNU Tools Arm Embedded/version13-3/arm-none-eabi/include/c++/13.3.1/bits\hashtable_policy.h **** 			   __cache>& __x) noexcept
 488:C:/Program Files (x86)/GNU Tools Arm Embedded/version13-3/arm-none-eabi/include/c++/13.3.1/bits\hashtable_policy.h ****       : __base_type(__x._M_cur) { }
 489:C:/Program Files (x86)/GNU Tools Arm Embedded/version13-3/arm-none-eabi/include/c++/13.3.1/bits\hashtable_policy.h **** 
 490:C:/Program Files (x86)/GNU Tools Arm Embedded/version13-3/arm-none-eabi/include/c++/13.3.1/bits\hashtable_policy.h ****       reference
 491:C:/Program Files (x86)/GNU Tools Arm Embedded/version13-3/arm-none-eabi/include/c++/13.3.1/bits\hashtable_policy.h ****       operator*() const noexcept
 492:C:/Program Files (x86)/GNU Tools Arm Embedded/version13-3/arm-none-eabi/include/c++/13.3.1/bits\hashtable_policy.h ****       { return this->_M_cur->_M_v(); }
 493:C:/Program Files (x86)/GNU Tools Arm Embedded/version13-3/arm-none-eabi/include/c++/13.3.1/bits\hashtable_policy.h **** 
 494:C:/Program Files (x86)/GNU Tools Arm Embedded/version13-3/arm-none-eabi/include/c++/13.3.1/bits\hashtable_policy.h ****       pointer
 495:C:/Program Files (x86)/GNU Tools Arm Embedded/version13-3/arm-none-eabi/include/c++/13.3.1/bits\hashtable_policy.h ****       operator->() const noexcept
 496:C:/Program Files (x86)/GNU Tools Arm Embedded/version13-3/arm-none-eabi/include/c++/13.3.1/bits\hashtable_policy.h ****       { return this->_M_cur->_M_valptr(); }
 497:C:/Program Files (x86)/GNU Tools Arm Embedded/version13-3/arm-none-eabi/include/c++/13.3.1/bits\hashtable_policy.h **** 
 498:C:/Program Files (x86)/GNU Tools Arm Embedded/version13-3/arm-none-eabi/include/c++/13.3.1/bits\hashtable_policy.h ****       _Node_const_iterator&
 499:C:/Program Files (x86)/GNU Tools Arm Embedded/version13-3/arm-none-eabi/include/c++/13.3.1/bits\hashtable_policy.h ****       operator++() noexcept
 500:C:/Program Files (x86)/GNU Tools Arm Embedded/version13-3/arm-none-eabi/include/c++/13.3.1/bits\hashtable_policy.h ****       {
 501:C:/Program Files (x86)/GNU Tools Arm Embedded/version13-3/arm-none-eabi/include/c++/13.3.1/bits\hashtable_policy.h **** 	this->_M_incr();
 502:C:/Program Files (x86)/GNU Tools Arm Embedded/version13-3/arm-none-eabi/include/c++/13.3.1/bits\hashtable_policy.h **** 	return *this;
 503:C:/Program Files (x86)/GNU Tools Arm Embedded/version13-3/arm-none-eabi/include/c++/13.3.1/bits\hashtable_policy.h ****       }
 504:C:/Program Files (x86)/GNU Tools Arm Embedded/version13-3/arm-none-eabi/include/c++/13.3.1/bits\hashtable_policy.h **** 
 505:C:/Program Files (x86)/GNU Tools Arm Embedded/version13-3/arm-none-eabi/include/c++/13.3.1/bits\hashtable_policy.h ****       _Node_const_iterator
 506:C:/Program Files (x86)/GNU Tools Arm Embedded/version13-3/arm-none-eabi/include/c++/13.3.1/bits\hashtable_policy.h ****       operator++(int) noexcept
 507:C:/Program Files (x86)/GNU Tools Arm Embedded/version13-3/arm-none-eabi/include/c++/13.3.1/bits\hashtable_policy.h ****       {
 508:C:/Program Files (x86)/GNU Tools Arm Embedded/version13-3/arm-none-eabi/include/c++/13.3.1/bits\hashtable_policy.h **** 	_Node_const_iterator __tmp(*this);
 509:C:/Program Files (x86)/GNU Tools Arm Embedded/version13-3/arm-none-eabi/include/c++/13.3.1/bits\hashtable_policy.h **** 	this->_M_incr();
 510:C:/Program Files (x86)/GNU Tools Arm Embedded/version13-3/arm-none-eabi/include/c++/13.3.1/bits\hashtable_policy.h **** 	return __tmp;
 511:C:/Program Files (x86)/GNU Tools Arm Embedded/version13-3/arm-none-eabi/include/c++/13.3.1/bits\hashtable_policy.h ****       }
 512:C:/Program Files (x86)/GNU Tools Arm Embedded/version13-3/arm-none-eabi/include/c++/13.3.1/bits\hashtable_policy.h ****     };
 513:C:/Program Files (x86)/GNU Tools Arm Embedded/version13-3/arm-none-eabi/include/c++/13.3.1/bits\hashtable_policy.h **** 
 514:C:/Program Files (x86)/GNU Tools Arm Embedded/version13-3/arm-none-eabi/include/c++/13.3.1/bits\hashtable_policy.h ****   // Many of class template _Hashtable's template parameters are policy
 515:C:/Program Files (x86)/GNU Tools Arm Embedded/version13-3/arm-none-eabi/include/c++/13.3.1/bits\hashtable_policy.h ****   // classes.  These are defaults for the policies.
ARM GAS  C:\Users\Owner\AppData\Local\Temp\cctnuIAx.s 			page 24


 516:C:/Program Files (x86)/GNU Tools Arm Embedded/version13-3/arm-none-eabi/include/c++/13.3.1/bits\hashtable_policy.h **** 
 517:C:/Program Files (x86)/GNU Tools Arm Embedded/version13-3/arm-none-eabi/include/c++/13.3.1/bits\hashtable_policy.h ****   /// Default range hashing function: use division to fold a large number
 518:C:/Program Files (x86)/GNU Tools Arm Embedded/version13-3/arm-none-eabi/include/c++/13.3.1/bits\hashtable_policy.h ****   /// into the range [0, N).
 519:C:/Program Files (x86)/GNU Tools Arm Embedded/version13-3/arm-none-eabi/include/c++/13.3.1/bits\hashtable_policy.h ****   struct _Mod_range_hashing
 520:C:/Program Files (x86)/GNU Tools Arm Embedded/version13-3/arm-none-eabi/include/c++/13.3.1/bits\hashtable_policy.h ****   {
 521:C:/Program Files (x86)/GNU Tools Arm Embedded/version13-3/arm-none-eabi/include/c++/13.3.1/bits\hashtable_policy.h ****     typedef std::size_t first_argument_type;
 522:C:/Program Files (x86)/GNU Tools Arm Embedded/version13-3/arm-none-eabi/include/c++/13.3.1/bits\hashtable_policy.h ****     typedef std::size_t second_argument_type;
 523:C:/Program Files (x86)/GNU Tools Arm Embedded/version13-3/arm-none-eabi/include/c++/13.3.1/bits\hashtable_policy.h ****     typedef std::size_t result_type;
 524:C:/Program Files (x86)/GNU Tools Arm Embedded/version13-3/arm-none-eabi/include/c++/13.3.1/bits\hashtable_policy.h **** 
 525:C:/Program Files (x86)/GNU Tools Arm Embedded/version13-3/arm-none-eabi/include/c++/13.3.1/bits\hashtable_policy.h ****     result_type
 526:C:/Program Files (x86)/GNU Tools Arm Embedded/version13-3/arm-none-eabi/include/c++/13.3.1/bits\hashtable_policy.h ****     operator()(first_argument_type __num,
 527:C:/Program Files (x86)/GNU Tools Arm Embedded/version13-3/arm-none-eabi/include/c++/13.3.1/bits\hashtable_policy.h **** 	       second_argument_type __den) const noexcept
 528:C:/Program Files (x86)/GNU Tools Arm Embedded/version13-3/arm-none-eabi/include/c++/13.3.1/bits\hashtable_policy.h ****     { return __num % __den; }
 529:C:/Program Files (x86)/GNU Tools Arm Embedded/version13-3/arm-none-eabi/include/c++/13.3.1/bits\hashtable_policy.h ****   };
 530:C:/Program Files (x86)/GNU Tools Arm Embedded/version13-3/arm-none-eabi/include/c++/13.3.1/bits\hashtable_policy.h **** 
 531:C:/Program Files (x86)/GNU Tools Arm Embedded/version13-3/arm-none-eabi/include/c++/13.3.1/bits\hashtable_policy.h ****   /// Default ranged hash function H.  In principle it should be a
 532:C:/Program Files (x86)/GNU Tools Arm Embedded/version13-3/arm-none-eabi/include/c++/13.3.1/bits\hashtable_policy.h ****   /// function object composed from objects of type H1 and H2 such that
 533:C:/Program Files (x86)/GNU Tools Arm Embedded/version13-3/arm-none-eabi/include/c++/13.3.1/bits\hashtable_policy.h ****   /// h(k, N) = h2(h1(k), N), but that would mean making extra copies of
 534:C:/Program Files (x86)/GNU Tools Arm Embedded/version13-3/arm-none-eabi/include/c++/13.3.1/bits\hashtable_policy.h ****   /// h1 and h2.  So instead we'll just use a tag to tell class template
 535:C:/Program Files (x86)/GNU Tools Arm Embedded/version13-3/arm-none-eabi/include/c++/13.3.1/bits\hashtable_policy.h ****   /// hashtable to do that composition.
 536:C:/Program Files (x86)/GNU Tools Arm Embedded/version13-3/arm-none-eabi/include/c++/13.3.1/bits\hashtable_policy.h ****   struct _Default_ranged_hash { };
 537:C:/Program Files (x86)/GNU Tools Arm Embedded/version13-3/arm-none-eabi/include/c++/13.3.1/bits\hashtable_policy.h **** 
 538:C:/Program Files (x86)/GNU Tools Arm Embedded/version13-3/arm-none-eabi/include/c++/13.3.1/bits\hashtable_policy.h ****   /// Default value for rehash policy.  Bucket size is (usually) the
 539:C:/Program Files (x86)/GNU Tools Arm Embedded/version13-3/arm-none-eabi/include/c++/13.3.1/bits\hashtable_policy.h ****   /// smallest prime that keeps the load factor small enough.
 540:C:/Program Files (x86)/GNU Tools Arm Embedded/version13-3/arm-none-eabi/include/c++/13.3.1/bits\hashtable_policy.h ****   struct _Prime_rehash_policy
 541:C:/Program Files (x86)/GNU Tools Arm Embedded/version13-3/arm-none-eabi/include/c++/13.3.1/bits\hashtable_policy.h ****   {
 542:C:/Program Files (x86)/GNU Tools Arm Embedded/version13-3/arm-none-eabi/include/c++/13.3.1/bits\hashtable_policy.h ****     using __has_load_factor = true_type;
 543:C:/Program Files (x86)/GNU Tools Arm Embedded/version13-3/arm-none-eabi/include/c++/13.3.1/bits\hashtable_policy.h **** 
 544:C:/Program Files (x86)/GNU Tools Arm Embedded/version13-3/arm-none-eabi/include/c++/13.3.1/bits\hashtable_policy.h ****     _Prime_rehash_policy(float __z = 1.0) noexcept
 545:C:/Program Files (x86)/GNU Tools Arm Embedded/version13-3/arm-none-eabi/include/c++/13.3.1/bits\hashtable_policy.h ****     : _M_max_load_factor(__z), _M_next_resize(0) { }
 546:C:/Program Files (x86)/GNU Tools Arm Embedded/version13-3/arm-none-eabi/include/c++/13.3.1/bits\hashtable_policy.h **** 
 547:C:/Program Files (x86)/GNU Tools Arm Embedded/version13-3/arm-none-eabi/include/c++/13.3.1/bits\hashtable_policy.h ****     float
 548:C:/Program Files (x86)/GNU Tools Arm Embedded/version13-3/arm-none-eabi/include/c++/13.3.1/bits\hashtable_policy.h ****     max_load_factor() const noexcept
 549:C:/Program Files (x86)/GNU Tools Arm Embedded/version13-3/arm-none-eabi/include/c++/13.3.1/bits\hashtable_policy.h ****     { return _M_max_load_factor; }
 550:C:/Program Files (x86)/GNU Tools Arm Embedded/version13-3/arm-none-eabi/include/c++/13.3.1/bits\hashtable_policy.h **** 
 551:C:/Program Files (x86)/GNU Tools Arm Embedded/version13-3/arm-none-eabi/include/c++/13.3.1/bits\hashtable_policy.h ****     // Return a bucket size no smaller than n.
 552:C:/Program Files (x86)/GNU Tools Arm Embedded/version13-3/arm-none-eabi/include/c++/13.3.1/bits\hashtable_policy.h ****     std::size_t
 553:C:/Program Files (x86)/GNU Tools Arm Embedded/version13-3/arm-none-eabi/include/c++/13.3.1/bits\hashtable_policy.h ****     _M_next_bkt(std::size_t __n) const;
 554:C:/Program Files (x86)/GNU Tools Arm Embedded/version13-3/arm-none-eabi/include/c++/13.3.1/bits\hashtable_policy.h **** 
 555:C:/Program Files (x86)/GNU Tools Arm Embedded/version13-3/arm-none-eabi/include/c++/13.3.1/bits\hashtable_policy.h ****     // Return a bucket count appropriate for n elements
 556:C:/Program Files (x86)/GNU Tools Arm Embedded/version13-3/arm-none-eabi/include/c++/13.3.1/bits\hashtable_policy.h ****     std::size_t
 557:C:/Program Files (x86)/GNU Tools Arm Embedded/version13-3/arm-none-eabi/include/c++/13.3.1/bits\hashtable_policy.h ****     _M_bkt_for_elements(std::size_t __n) const
 558:C:/Program Files (x86)/GNU Tools Arm Embedded/version13-3/arm-none-eabi/include/c++/13.3.1/bits\hashtable_policy.h ****     { return __builtin_ceil(__n / (double)_M_max_load_factor); }
 559:C:/Program Files (x86)/GNU Tools Arm Embedded/version13-3/arm-none-eabi/include/c++/13.3.1/bits\hashtable_policy.h **** 
 560:C:/Program Files (x86)/GNU Tools Arm Embedded/version13-3/arm-none-eabi/include/c++/13.3.1/bits\hashtable_policy.h ****     // __n_bkt is current bucket count, __n_elt is current element count,
 561:C:/Program Files (x86)/GNU Tools Arm Embedded/version13-3/arm-none-eabi/include/c++/13.3.1/bits\hashtable_policy.h ****     // and __n_ins is number of elements to be inserted.  Do we need to
 562:C:/Program Files (x86)/GNU Tools Arm Embedded/version13-3/arm-none-eabi/include/c++/13.3.1/bits\hashtable_policy.h ****     // increase bucket count?  If so, return make_pair(true, n), where n
 563:C:/Program Files (x86)/GNU Tools Arm Embedded/version13-3/arm-none-eabi/include/c++/13.3.1/bits\hashtable_policy.h ****     // is the new bucket count.  If not, return make_pair(false, 0).
 564:C:/Program Files (x86)/GNU Tools Arm Embedded/version13-3/arm-none-eabi/include/c++/13.3.1/bits\hashtable_policy.h ****     std::pair<bool, std::size_t>
 565:C:/Program Files (x86)/GNU Tools Arm Embedded/version13-3/arm-none-eabi/include/c++/13.3.1/bits\hashtable_policy.h ****     _M_need_rehash(std::size_t __n_bkt, std::size_t __n_elt,
 566:C:/Program Files (x86)/GNU Tools Arm Embedded/version13-3/arm-none-eabi/include/c++/13.3.1/bits\hashtable_policy.h **** 		   std::size_t __n_ins) const;
 567:C:/Program Files (x86)/GNU Tools Arm Embedded/version13-3/arm-none-eabi/include/c++/13.3.1/bits\hashtable_policy.h **** 
 568:C:/Program Files (x86)/GNU Tools Arm Embedded/version13-3/arm-none-eabi/include/c++/13.3.1/bits\hashtable_policy.h ****     typedef std::size_t _State;
 569:C:/Program Files (x86)/GNU Tools Arm Embedded/version13-3/arm-none-eabi/include/c++/13.3.1/bits\hashtable_policy.h **** 
 570:C:/Program Files (x86)/GNU Tools Arm Embedded/version13-3/arm-none-eabi/include/c++/13.3.1/bits\hashtable_policy.h ****     _State
 571:C:/Program Files (x86)/GNU Tools Arm Embedded/version13-3/arm-none-eabi/include/c++/13.3.1/bits\hashtable_policy.h ****     _M_state() const
 572:C:/Program Files (x86)/GNU Tools Arm Embedded/version13-3/arm-none-eabi/include/c++/13.3.1/bits\hashtable_policy.h ****     { return _M_next_resize; }
ARM GAS  C:\Users\Owner\AppData\Local\Temp\cctnuIAx.s 			page 25


 573:C:/Program Files (x86)/GNU Tools Arm Embedded/version13-3/arm-none-eabi/include/c++/13.3.1/bits\hashtable_policy.h **** 
 574:C:/Program Files (x86)/GNU Tools Arm Embedded/version13-3/arm-none-eabi/include/c++/13.3.1/bits\hashtable_policy.h ****     void
 575:C:/Program Files (x86)/GNU Tools Arm Embedded/version13-3/arm-none-eabi/include/c++/13.3.1/bits\hashtable_policy.h ****     _M_reset() noexcept
 576:C:/Program Files (x86)/GNU Tools Arm Embedded/version13-3/arm-none-eabi/include/c++/13.3.1/bits\hashtable_policy.h ****     { _M_next_resize = 0; }
 577:C:/Program Files (x86)/GNU Tools Arm Embedded/version13-3/arm-none-eabi/include/c++/13.3.1/bits\hashtable_policy.h **** 
 578:C:/Program Files (x86)/GNU Tools Arm Embedded/version13-3/arm-none-eabi/include/c++/13.3.1/bits\hashtable_policy.h ****     void
 579:C:/Program Files (x86)/GNU Tools Arm Embedded/version13-3/arm-none-eabi/include/c++/13.3.1/bits\hashtable_policy.h ****     _M_reset(_State __state)
 580:C:/Program Files (x86)/GNU Tools Arm Embedded/version13-3/arm-none-eabi/include/c++/13.3.1/bits\hashtable_policy.h ****     { _M_next_resize = __state; }
 581:C:/Program Files (x86)/GNU Tools Arm Embedded/version13-3/arm-none-eabi/include/c++/13.3.1/bits\hashtable_policy.h **** 
 582:C:/Program Files (x86)/GNU Tools Arm Embedded/version13-3/arm-none-eabi/include/c++/13.3.1/bits\hashtable_policy.h ****     static const std::size_t _S_growth_factor = 2;
 583:C:/Program Files (x86)/GNU Tools Arm Embedded/version13-3/arm-none-eabi/include/c++/13.3.1/bits\hashtable_policy.h **** 
 584:C:/Program Files (x86)/GNU Tools Arm Embedded/version13-3/arm-none-eabi/include/c++/13.3.1/bits\hashtable_policy.h ****     float		_M_max_load_factor;
 585:C:/Program Files (x86)/GNU Tools Arm Embedded/version13-3/arm-none-eabi/include/c++/13.3.1/bits\hashtable_policy.h ****     mutable std::size_t	_M_next_resize;
 586:C:/Program Files (x86)/GNU Tools Arm Embedded/version13-3/arm-none-eabi/include/c++/13.3.1/bits\hashtable_policy.h ****   };
 587:C:/Program Files (x86)/GNU Tools Arm Embedded/version13-3/arm-none-eabi/include/c++/13.3.1/bits\hashtable_policy.h **** 
 588:C:/Program Files (x86)/GNU Tools Arm Embedded/version13-3/arm-none-eabi/include/c++/13.3.1/bits\hashtable_policy.h ****   /// Range hashing function assuming that second arg is a power of 2.
 589:C:/Program Files (x86)/GNU Tools Arm Embedded/version13-3/arm-none-eabi/include/c++/13.3.1/bits\hashtable_policy.h ****   struct _Mask_range_hashing
 590:C:/Program Files (x86)/GNU Tools Arm Embedded/version13-3/arm-none-eabi/include/c++/13.3.1/bits\hashtable_policy.h ****   {
 591:C:/Program Files (x86)/GNU Tools Arm Embedded/version13-3/arm-none-eabi/include/c++/13.3.1/bits\hashtable_policy.h ****     typedef std::size_t first_argument_type;
 592:C:/Program Files (x86)/GNU Tools Arm Embedded/version13-3/arm-none-eabi/include/c++/13.3.1/bits\hashtable_policy.h ****     typedef std::size_t second_argument_type;
 593:C:/Program Files (x86)/GNU Tools Arm Embedded/version13-3/arm-none-eabi/include/c++/13.3.1/bits\hashtable_policy.h ****     typedef std::size_t result_type;
 594:C:/Program Files (x86)/GNU Tools Arm Embedded/version13-3/arm-none-eabi/include/c++/13.3.1/bits\hashtable_policy.h **** 
 595:C:/Program Files (x86)/GNU Tools Arm Embedded/version13-3/arm-none-eabi/include/c++/13.3.1/bits\hashtable_policy.h ****     result_type
 596:C:/Program Files (x86)/GNU Tools Arm Embedded/version13-3/arm-none-eabi/include/c++/13.3.1/bits\hashtable_policy.h ****     operator()(first_argument_type __num,
 597:C:/Program Files (x86)/GNU Tools Arm Embedded/version13-3/arm-none-eabi/include/c++/13.3.1/bits\hashtable_policy.h **** 	       second_argument_type __den) const noexcept
 598:C:/Program Files (x86)/GNU Tools Arm Embedded/version13-3/arm-none-eabi/include/c++/13.3.1/bits\hashtable_policy.h ****     { return __num & (__den - 1); }
 599:C:/Program Files (x86)/GNU Tools Arm Embedded/version13-3/arm-none-eabi/include/c++/13.3.1/bits\hashtable_policy.h ****   };
 600:C:/Program Files (x86)/GNU Tools Arm Embedded/version13-3/arm-none-eabi/include/c++/13.3.1/bits\hashtable_policy.h **** 
 601:C:/Program Files (x86)/GNU Tools Arm Embedded/version13-3/arm-none-eabi/include/c++/13.3.1/bits\hashtable_policy.h ****   /// Compute closest power of 2 not less than __n
 602:C:/Program Files (x86)/GNU Tools Arm Embedded/version13-3/arm-none-eabi/include/c++/13.3.1/bits\hashtable_policy.h ****   inline std::size_t
 603:C:/Program Files (x86)/GNU Tools Arm Embedded/version13-3/arm-none-eabi/include/c++/13.3.1/bits\hashtable_policy.h ****   __clp2(std::size_t __n) noexcept
 604:C:/Program Files (x86)/GNU Tools Arm Embedded/version13-3/arm-none-eabi/include/c++/13.3.1/bits\hashtable_policy.h ****   {
 605:C:/Program Files (x86)/GNU Tools Arm Embedded/version13-3/arm-none-eabi/include/c++/13.3.1/bits\hashtable_policy.h ****     using __gnu_cxx::__int_traits;
 606:C:/Program Files (x86)/GNU Tools Arm Embedded/version13-3/arm-none-eabi/include/c++/13.3.1/bits\hashtable_policy.h ****     // Equivalent to return __n ? std::bit_ceil(__n) : 0;
 607:C:/Program Files (x86)/GNU Tools Arm Embedded/version13-3/arm-none-eabi/include/c++/13.3.1/bits\hashtable_policy.h ****     if (__n < 2)
 608:C:/Program Files (x86)/GNU Tools Arm Embedded/version13-3/arm-none-eabi/include/c++/13.3.1/bits\hashtable_policy.h ****       return __n;
 609:C:/Program Files (x86)/GNU Tools Arm Embedded/version13-3/arm-none-eabi/include/c++/13.3.1/bits\hashtable_policy.h ****     const unsigned __lz = sizeof(size_t) > sizeof(long)
 610:C:/Program Files (x86)/GNU Tools Arm Embedded/version13-3/arm-none-eabi/include/c++/13.3.1/bits\hashtable_policy.h ****       ? __builtin_clzll(__n - 1ull)
 611:C:/Program Files (x86)/GNU Tools Arm Embedded/version13-3/arm-none-eabi/include/c++/13.3.1/bits\hashtable_policy.h ****       : __builtin_clzl(__n - 1ul);
 612:C:/Program Files (x86)/GNU Tools Arm Embedded/version13-3/arm-none-eabi/include/c++/13.3.1/bits\hashtable_policy.h ****     // Doing two shifts avoids undefined behaviour when __lz == 0.
 613:C:/Program Files (x86)/GNU Tools Arm Embedded/version13-3/arm-none-eabi/include/c++/13.3.1/bits\hashtable_policy.h ****     return (size_t(1) << (__int_traits<size_t>::__digits - __lz - 1)) << 1;
 614:C:/Program Files (x86)/GNU Tools Arm Embedded/version13-3/arm-none-eabi/include/c++/13.3.1/bits\hashtable_policy.h ****   }
 615:C:/Program Files (x86)/GNU Tools Arm Embedded/version13-3/arm-none-eabi/include/c++/13.3.1/bits\hashtable_policy.h **** 
 616:C:/Program Files (x86)/GNU Tools Arm Embedded/version13-3/arm-none-eabi/include/c++/13.3.1/bits\hashtable_policy.h ****   /// Rehash policy providing power of 2 bucket numbers. Avoids modulo
 617:C:/Program Files (x86)/GNU Tools Arm Embedded/version13-3/arm-none-eabi/include/c++/13.3.1/bits\hashtable_policy.h ****   /// operations.
 618:C:/Program Files (x86)/GNU Tools Arm Embedded/version13-3/arm-none-eabi/include/c++/13.3.1/bits\hashtable_policy.h ****   struct _Power2_rehash_policy
 619:C:/Program Files (x86)/GNU Tools Arm Embedded/version13-3/arm-none-eabi/include/c++/13.3.1/bits\hashtable_policy.h ****   {
 620:C:/Program Files (x86)/GNU Tools Arm Embedded/version13-3/arm-none-eabi/include/c++/13.3.1/bits\hashtable_policy.h ****     using __has_load_factor = true_type;
 621:C:/Program Files (x86)/GNU Tools Arm Embedded/version13-3/arm-none-eabi/include/c++/13.3.1/bits\hashtable_policy.h **** 
 622:C:/Program Files (x86)/GNU Tools Arm Embedded/version13-3/arm-none-eabi/include/c++/13.3.1/bits\hashtable_policy.h ****     _Power2_rehash_policy(float __z = 1.0) noexcept
 623:C:/Program Files (x86)/GNU Tools Arm Embedded/version13-3/arm-none-eabi/include/c++/13.3.1/bits\hashtable_policy.h ****     : _M_max_load_factor(__z), _M_next_resize(0) { }
 624:C:/Program Files (x86)/GNU Tools Arm Embedded/version13-3/arm-none-eabi/include/c++/13.3.1/bits\hashtable_policy.h **** 
 625:C:/Program Files (x86)/GNU Tools Arm Embedded/version13-3/arm-none-eabi/include/c++/13.3.1/bits\hashtable_policy.h ****     float
 626:C:/Program Files (x86)/GNU Tools Arm Embedded/version13-3/arm-none-eabi/include/c++/13.3.1/bits\hashtable_policy.h ****     max_load_factor() const noexcept
 627:C:/Program Files (x86)/GNU Tools Arm Embedded/version13-3/arm-none-eabi/include/c++/13.3.1/bits\hashtable_policy.h ****     { return _M_max_load_factor; }
 628:C:/Program Files (x86)/GNU Tools Arm Embedded/version13-3/arm-none-eabi/include/c++/13.3.1/bits\hashtable_policy.h **** 
 629:C:/Program Files (x86)/GNU Tools Arm Embedded/version13-3/arm-none-eabi/include/c++/13.3.1/bits\hashtable_policy.h ****     // Return a bucket size no smaller than n (as long as n is not above the
ARM GAS  C:\Users\Owner\AppData\Local\Temp\cctnuIAx.s 			page 26


 630:C:/Program Files (x86)/GNU Tools Arm Embedded/version13-3/arm-none-eabi/include/c++/13.3.1/bits\hashtable_policy.h ****     // highest power of 2).
 631:C:/Program Files (x86)/GNU Tools Arm Embedded/version13-3/arm-none-eabi/include/c++/13.3.1/bits\hashtable_policy.h ****     std::size_t
 632:C:/Program Files (x86)/GNU Tools Arm Embedded/version13-3/arm-none-eabi/include/c++/13.3.1/bits\hashtable_policy.h ****     _M_next_bkt(std::size_t __n) noexcept
 633:C:/Program Files (x86)/GNU Tools Arm Embedded/version13-3/arm-none-eabi/include/c++/13.3.1/bits\hashtable_policy.h ****     {
 634:C:/Program Files (x86)/GNU Tools Arm Embedded/version13-3/arm-none-eabi/include/c++/13.3.1/bits\hashtable_policy.h ****       if (__n == 0)
 635:C:/Program Files (x86)/GNU Tools Arm Embedded/version13-3/arm-none-eabi/include/c++/13.3.1/bits\hashtable_policy.h **** 	// Special case on container 1st initialization with 0 bucket count
 636:C:/Program Files (x86)/GNU Tools Arm Embedded/version13-3/arm-none-eabi/include/c++/13.3.1/bits\hashtable_policy.h **** 	// hint. We keep _M_next_resize to 0 to make sure that next time we
 637:C:/Program Files (x86)/GNU Tools Arm Embedded/version13-3/arm-none-eabi/include/c++/13.3.1/bits\hashtable_policy.h **** 	// want to add an element allocation will take place.
 638:C:/Program Files (x86)/GNU Tools Arm Embedded/version13-3/arm-none-eabi/include/c++/13.3.1/bits\hashtable_policy.h **** 	return 1;
 639:C:/Program Files (x86)/GNU Tools Arm Embedded/version13-3/arm-none-eabi/include/c++/13.3.1/bits\hashtable_policy.h **** 
 640:C:/Program Files (x86)/GNU Tools Arm Embedded/version13-3/arm-none-eabi/include/c++/13.3.1/bits\hashtable_policy.h ****       const auto __max_width = std::min<size_t>(sizeof(size_t), 8);
 641:C:/Program Files (x86)/GNU Tools Arm Embedded/version13-3/arm-none-eabi/include/c++/13.3.1/bits\hashtable_policy.h ****       const auto __max_bkt = size_t(1) << (__max_width * __CHAR_BIT__ - 1);
 642:C:/Program Files (x86)/GNU Tools Arm Embedded/version13-3/arm-none-eabi/include/c++/13.3.1/bits\hashtable_policy.h ****       std::size_t __res = __clp2(__n);
 643:C:/Program Files (x86)/GNU Tools Arm Embedded/version13-3/arm-none-eabi/include/c++/13.3.1/bits\hashtable_policy.h **** 
 644:C:/Program Files (x86)/GNU Tools Arm Embedded/version13-3/arm-none-eabi/include/c++/13.3.1/bits\hashtable_policy.h ****       if (__res == 0)
 645:C:/Program Files (x86)/GNU Tools Arm Embedded/version13-3/arm-none-eabi/include/c++/13.3.1/bits\hashtable_policy.h **** 	__res = __max_bkt;
 646:C:/Program Files (x86)/GNU Tools Arm Embedded/version13-3/arm-none-eabi/include/c++/13.3.1/bits\hashtable_policy.h ****       else if (__res == 1)
 647:C:/Program Files (x86)/GNU Tools Arm Embedded/version13-3/arm-none-eabi/include/c++/13.3.1/bits\hashtable_policy.h **** 	// If __res is 1 we force it to 2 to make sure there will be an
 648:C:/Program Files (x86)/GNU Tools Arm Embedded/version13-3/arm-none-eabi/include/c++/13.3.1/bits\hashtable_policy.h **** 	// allocation so that nothing need to be stored in the initial
 649:C:/Program Files (x86)/GNU Tools Arm Embedded/version13-3/arm-none-eabi/include/c++/13.3.1/bits\hashtable_policy.h **** 	// single bucket
 650:C:/Program Files (x86)/GNU Tools Arm Embedded/version13-3/arm-none-eabi/include/c++/13.3.1/bits\hashtable_policy.h **** 	__res = 2;
 651:C:/Program Files (x86)/GNU Tools Arm Embedded/version13-3/arm-none-eabi/include/c++/13.3.1/bits\hashtable_policy.h **** 
 652:C:/Program Files (x86)/GNU Tools Arm Embedded/version13-3/arm-none-eabi/include/c++/13.3.1/bits\hashtable_policy.h ****       if (__res == __max_bkt)
 653:C:/Program Files (x86)/GNU Tools Arm Embedded/version13-3/arm-none-eabi/include/c++/13.3.1/bits\hashtable_policy.h **** 	// Set next resize to the max value so that we never try to rehash again
 654:C:/Program Files (x86)/GNU Tools Arm Embedded/version13-3/arm-none-eabi/include/c++/13.3.1/bits\hashtable_policy.h **** 	// as we already reach the biggest possible bucket number.
 655:C:/Program Files (x86)/GNU Tools Arm Embedded/version13-3/arm-none-eabi/include/c++/13.3.1/bits\hashtable_policy.h **** 	// Note that it might result in max_load_factor not being respected.
 656:C:/Program Files (x86)/GNU Tools Arm Embedded/version13-3/arm-none-eabi/include/c++/13.3.1/bits\hashtable_policy.h **** 	_M_next_resize = size_t(-1);
 657:C:/Program Files (x86)/GNU Tools Arm Embedded/version13-3/arm-none-eabi/include/c++/13.3.1/bits\hashtable_policy.h ****       else
 658:C:/Program Files (x86)/GNU Tools Arm Embedded/version13-3/arm-none-eabi/include/c++/13.3.1/bits\hashtable_policy.h **** 	_M_next_resize
 659:C:/Program Files (x86)/GNU Tools Arm Embedded/version13-3/arm-none-eabi/include/c++/13.3.1/bits\hashtable_policy.h **** 	  = __builtin_floor(__res * (double)_M_max_load_factor);
 660:C:/Program Files (x86)/GNU Tools Arm Embedded/version13-3/arm-none-eabi/include/c++/13.3.1/bits\hashtable_policy.h **** 
 661:C:/Program Files (x86)/GNU Tools Arm Embedded/version13-3/arm-none-eabi/include/c++/13.3.1/bits\hashtable_policy.h ****       return __res;
 662:C:/Program Files (x86)/GNU Tools Arm Embedded/version13-3/arm-none-eabi/include/c++/13.3.1/bits\hashtable_policy.h ****     }
 663:C:/Program Files (x86)/GNU Tools Arm Embedded/version13-3/arm-none-eabi/include/c++/13.3.1/bits\hashtable_policy.h **** 
 664:C:/Program Files (x86)/GNU Tools Arm Embedded/version13-3/arm-none-eabi/include/c++/13.3.1/bits\hashtable_policy.h ****     // Return a bucket count appropriate for n elements
 665:C:/Program Files (x86)/GNU Tools Arm Embedded/version13-3/arm-none-eabi/include/c++/13.3.1/bits\hashtable_policy.h ****     std::size_t
 666:C:/Program Files (x86)/GNU Tools Arm Embedded/version13-3/arm-none-eabi/include/c++/13.3.1/bits\hashtable_policy.h ****     _M_bkt_for_elements(std::size_t __n) const noexcept
 667:C:/Program Files (x86)/GNU Tools Arm Embedded/version13-3/arm-none-eabi/include/c++/13.3.1/bits\hashtable_policy.h ****     { return __builtin_ceil(__n / (double)_M_max_load_factor); }
 668:C:/Program Files (x86)/GNU Tools Arm Embedded/version13-3/arm-none-eabi/include/c++/13.3.1/bits\hashtable_policy.h **** 
 669:C:/Program Files (x86)/GNU Tools Arm Embedded/version13-3/arm-none-eabi/include/c++/13.3.1/bits\hashtable_policy.h ****     // __n_bkt is current bucket count, __n_elt is current element count,
 670:C:/Program Files (x86)/GNU Tools Arm Embedded/version13-3/arm-none-eabi/include/c++/13.3.1/bits\hashtable_policy.h ****     // and __n_ins is number of elements to be inserted.  Do we need to
 671:C:/Program Files (x86)/GNU Tools Arm Embedded/version13-3/arm-none-eabi/include/c++/13.3.1/bits\hashtable_policy.h ****     // increase bucket count?  If so, return make_pair(true, n), where n
 672:C:/Program Files (x86)/GNU Tools Arm Embedded/version13-3/arm-none-eabi/include/c++/13.3.1/bits\hashtable_policy.h ****     // is the new bucket count.  If not, return make_pair(false, 0).
 673:C:/Program Files (x86)/GNU Tools Arm Embedded/version13-3/arm-none-eabi/include/c++/13.3.1/bits\hashtable_policy.h ****     std::pair<bool, std::size_t>
 674:C:/Program Files (x86)/GNU Tools Arm Embedded/version13-3/arm-none-eabi/include/c++/13.3.1/bits\hashtable_policy.h ****     _M_need_rehash(std::size_t __n_bkt, std::size_t __n_elt,
 675:C:/Program Files (x86)/GNU Tools Arm Embedded/version13-3/arm-none-eabi/include/c++/13.3.1/bits\hashtable_policy.h **** 		   std::size_t __n_ins) noexcept
 676:C:/Program Files (x86)/GNU Tools Arm Embedded/version13-3/arm-none-eabi/include/c++/13.3.1/bits\hashtable_policy.h ****     {
 677:C:/Program Files (x86)/GNU Tools Arm Embedded/version13-3/arm-none-eabi/include/c++/13.3.1/bits\hashtable_policy.h ****       if (__n_elt + __n_ins > _M_next_resize)
 678:C:/Program Files (x86)/GNU Tools Arm Embedded/version13-3/arm-none-eabi/include/c++/13.3.1/bits\hashtable_policy.h **** 	{
 679:C:/Program Files (x86)/GNU Tools Arm Embedded/version13-3/arm-none-eabi/include/c++/13.3.1/bits\hashtable_policy.h **** 	  // If _M_next_resize is 0 it means that we have nothing allocated so
 680:C:/Program Files (x86)/GNU Tools Arm Embedded/version13-3/arm-none-eabi/include/c++/13.3.1/bits\hashtable_policy.h **** 	  // far and that we start inserting elements. In this case we start
 681:C:/Program Files (x86)/GNU Tools Arm Embedded/version13-3/arm-none-eabi/include/c++/13.3.1/bits\hashtable_policy.h **** 	  // with an initial bucket size of 11.
 682:C:/Program Files (x86)/GNU Tools Arm Embedded/version13-3/arm-none-eabi/include/c++/13.3.1/bits\hashtable_policy.h **** 	  double __min_bkts
 683:C:/Program Files (x86)/GNU Tools Arm Embedded/version13-3/arm-none-eabi/include/c++/13.3.1/bits\hashtable_policy.h **** 	    = std::max<std::size_t>(__n_elt + __n_ins, _M_next_resize ? 0 : 11)
 684:C:/Program Files (x86)/GNU Tools Arm Embedded/version13-3/arm-none-eabi/include/c++/13.3.1/bits\hashtable_policy.h **** 	      / (double)_M_max_load_factor;
 685:C:/Program Files (x86)/GNU Tools Arm Embedded/version13-3/arm-none-eabi/include/c++/13.3.1/bits\hashtable_policy.h **** 	  if (__min_bkts >= __n_bkt)
 686:C:/Program Files (x86)/GNU Tools Arm Embedded/version13-3/arm-none-eabi/include/c++/13.3.1/bits\hashtable_policy.h **** 	    return { true,
ARM GAS  C:\Users\Owner\AppData\Local\Temp\cctnuIAx.s 			page 27


 687:C:/Program Files (x86)/GNU Tools Arm Embedded/version13-3/arm-none-eabi/include/c++/13.3.1/bits\hashtable_policy.h **** 	      _M_next_bkt(std::max<std::size_t>(__builtin_floor(__min_bkts) + 1,
 688:C:/Program Files (x86)/GNU Tools Arm Embedded/version13-3/arm-none-eabi/include/c++/13.3.1/bits\hashtable_policy.h **** 						__n_bkt * _S_growth_factor)) };
 689:C:/Program Files (x86)/GNU Tools Arm Embedded/version13-3/arm-none-eabi/include/c++/13.3.1/bits\hashtable_policy.h **** 
 690:C:/Program Files (x86)/GNU Tools Arm Embedded/version13-3/arm-none-eabi/include/c++/13.3.1/bits\hashtable_policy.h **** 	  _M_next_resize
 691:C:/Program Files (x86)/GNU Tools Arm Embedded/version13-3/arm-none-eabi/include/c++/13.3.1/bits\hashtable_policy.h **** 	    = __builtin_floor(__n_bkt * (double)_M_max_load_factor);
 692:C:/Program Files (x86)/GNU Tools Arm Embedded/version13-3/arm-none-eabi/include/c++/13.3.1/bits\hashtable_policy.h **** 	  return { false, 0 };
 693:C:/Program Files (x86)/GNU Tools Arm Embedded/version13-3/arm-none-eabi/include/c++/13.3.1/bits\hashtable_policy.h **** 	}
 694:C:/Program Files (x86)/GNU Tools Arm Embedded/version13-3/arm-none-eabi/include/c++/13.3.1/bits\hashtable_policy.h ****       else
 695:C:/Program Files (x86)/GNU Tools Arm Embedded/version13-3/arm-none-eabi/include/c++/13.3.1/bits\hashtable_policy.h **** 	return { false, 0 };
 696:C:/Program Files (x86)/GNU Tools Arm Embedded/version13-3/arm-none-eabi/include/c++/13.3.1/bits\hashtable_policy.h ****     }
 697:C:/Program Files (x86)/GNU Tools Arm Embedded/version13-3/arm-none-eabi/include/c++/13.3.1/bits\hashtable_policy.h **** 
 698:C:/Program Files (x86)/GNU Tools Arm Embedded/version13-3/arm-none-eabi/include/c++/13.3.1/bits\hashtable_policy.h ****     typedef std::size_t _State;
 699:C:/Program Files (x86)/GNU Tools Arm Embedded/version13-3/arm-none-eabi/include/c++/13.3.1/bits\hashtable_policy.h **** 
 700:C:/Program Files (x86)/GNU Tools Arm Embedded/version13-3/arm-none-eabi/include/c++/13.3.1/bits\hashtable_policy.h ****     _State
 701:C:/Program Files (x86)/GNU Tools Arm Embedded/version13-3/arm-none-eabi/include/c++/13.3.1/bits\hashtable_policy.h ****     _M_state() const noexcept
 702:C:/Program Files (x86)/GNU Tools Arm Embedded/version13-3/arm-none-eabi/include/c++/13.3.1/bits\hashtable_policy.h ****     { return _M_next_resize; }
 703:C:/Program Files (x86)/GNU Tools Arm Embedded/version13-3/arm-none-eabi/include/c++/13.3.1/bits\hashtable_policy.h **** 
 704:C:/Program Files (x86)/GNU Tools Arm Embedded/version13-3/arm-none-eabi/include/c++/13.3.1/bits\hashtable_policy.h ****     void
 705:C:/Program Files (x86)/GNU Tools Arm Embedded/version13-3/arm-none-eabi/include/c++/13.3.1/bits\hashtable_policy.h ****     _M_reset() noexcept
 706:C:/Program Files (x86)/GNU Tools Arm Embedded/version13-3/arm-none-eabi/include/c++/13.3.1/bits\hashtable_policy.h ****     { _M_next_resize = 0; }
 707:C:/Program Files (x86)/GNU Tools Arm Embedded/version13-3/arm-none-eabi/include/c++/13.3.1/bits\hashtable_policy.h **** 
 708:C:/Program Files (x86)/GNU Tools Arm Embedded/version13-3/arm-none-eabi/include/c++/13.3.1/bits\hashtable_policy.h ****     void
 709:C:/Program Files (x86)/GNU Tools Arm Embedded/version13-3/arm-none-eabi/include/c++/13.3.1/bits\hashtable_policy.h ****     _M_reset(_State __state) noexcept
 710:C:/Program Files (x86)/GNU Tools Arm Embedded/version13-3/arm-none-eabi/include/c++/13.3.1/bits\hashtable_policy.h ****     { _M_next_resize = __state; }
 711:C:/Program Files (x86)/GNU Tools Arm Embedded/version13-3/arm-none-eabi/include/c++/13.3.1/bits\hashtable_policy.h **** 
 712:C:/Program Files (x86)/GNU Tools Arm Embedded/version13-3/arm-none-eabi/include/c++/13.3.1/bits\hashtable_policy.h ****     static const std::size_t _S_growth_factor = 2;
 713:C:/Program Files (x86)/GNU Tools Arm Embedded/version13-3/arm-none-eabi/include/c++/13.3.1/bits\hashtable_policy.h **** 
 714:C:/Program Files (x86)/GNU Tools Arm Embedded/version13-3/arm-none-eabi/include/c++/13.3.1/bits\hashtable_policy.h ****     float	_M_max_load_factor;
 715:C:/Program Files (x86)/GNU Tools Arm Embedded/version13-3/arm-none-eabi/include/c++/13.3.1/bits\hashtable_policy.h ****     std::size_t	_M_next_resize;
 716:C:/Program Files (x86)/GNU Tools Arm Embedded/version13-3/arm-none-eabi/include/c++/13.3.1/bits\hashtable_policy.h ****   };
 717:C:/Program Files (x86)/GNU Tools Arm Embedded/version13-3/arm-none-eabi/include/c++/13.3.1/bits\hashtable_policy.h **** 
 718:C:/Program Files (x86)/GNU Tools Arm Embedded/version13-3/arm-none-eabi/include/c++/13.3.1/bits\hashtable_policy.h ****   // Base classes for std::_Hashtable.  We define these base classes
 719:C:/Program Files (x86)/GNU Tools Arm Embedded/version13-3/arm-none-eabi/include/c++/13.3.1/bits\hashtable_policy.h ****   // because in some cases we want to do different things depending on
 720:C:/Program Files (x86)/GNU Tools Arm Embedded/version13-3/arm-none-eabi/include/c++/13.3.1/bits\hashtable_policy.h ****   // the value of a policy class.  In some cases the policy class
 721:C:/Program Files (x86)/GNU Tools Arm Embedded/version13-3/arm-none-eabi/include/c++/13.3.1/bits\hashtable_policy.h ****   // affects which member functions and nested typedefs are defined;
 722:C:/Program Files (x86)/GNU Tools Arm Embedded/version13-3/arm-none-eabi/include/c++/13.3.1/bits\hashtable_policy.h ****   // we handle that by specializing base class templates.  Several of
 723:C:/Program Files (x86)/GNU Tools Arm Embedded/version13-3/arm-none-eabi/include/c++/13.3.1/bits\hashtable_policy.h ****   // the base class templates need to access other members of class
 724:C:/Program Files (x86)/GNU Tools Arm Embedded/version13-3/arm-none-eabi/include/c++/13.3.1/bits\hashtable_policy.h ****   // template _Hashtable, so we use a variant of the "Curiously
 725:C:/Program Files (x86)/GNU Tools Arm Embedded/version13-3/arm-none-eabi/include/c++/13.3.1/bits\hashtable_policy.h ****   // Recurring Template Pattern" (CRTP) technique.
 726:C:/Program Files (x86)/GNU Tools Arm Embedded/version13-3/arm-none-eabi/include/c++/13.3.1/bits\hashtable_policy.h **** 
 727:C:/Program Files (x86)/GNU Tools Arm Embedded/version13-3/arm-none-eabi/include/c++/13.3.1/bits\hashtable_policy.h ****   /**
 728:C:/Program Files (x86)/GNU Tools Arm Embedded/version13-3/arm-none-eabi/include/c++/13.3.1/bits\hashtable_policy.h ****    *  Primary class template _Map_base.
 729:C:/Program Files (x86)/GNU Tools Arm Embedded/version13-3/arm-none-eabi/include/c++/13.3.1/bits\hashtable_policy.h ****    *
 730:C:/Program Files (x86)/GNU Tools Arm Embedded/version13-3/arm-none-eabi/include/c++/13.3.1/bits\hashtable_policy.h ****    *  If the hashtable has a value type of the form pair<const T1, T2> and
 731:C:/Program Files (x86)/GNU Tools Arm Embedded/version13-3/arm-none-eabi/include/c++/13.3.1/bits\hashtable_policy.h ****    *  a key extraction policy (_ExtractKey) that returns the first part
 732:C:/Program Files (x86)/GNU Tools Arm Embedded/version13-3/arm-none-eabi/include/c++/13.3.1/bits\hashtable_policy.h ****    *  of the pair, the hashtable gets a mapped_type typedef.  If it
 733:C:/Program Files (x86)/GNU Tools Arm Embedded/version13-3/arm-none-eabi/include/c++/13.3.1/bits\hashtable_policy.h ****    *  satisfies those criteria and also has unique keys, then it also
 734:C:/Program Files (x86)/GNU Tools Arm Embedded/version13-3/arm-none-eabi/include/c++/13.3.1/bits\hashtable_policy.h ****    *  gets an operator[].
 735:C:/Program Files (x86)/GNU Tools Arm Embedded/version13-3/arm-none-eabi/include/c++/13.3.1/bits\hashtable_policy.h ****    */
 736:C:/Program Files (x86)/GNU Tools Arm Embedded/version13-3/arm-none-eabi/include/c++/13.3.1/bits\hashtable_policy.h ****   template<typename _Key, typename _Value, typename _Alloc,
 737:C:/Program Files (x86)/GNU Tools Arm Embedded/version13-3/arm-none-eabi/include/c++/13.3.1/bits\hashtable_policy.h **** 	   typename _ExtractKey, typename _Equal,
 738:C:/Program Files (x86)/GNU Tools Arm Embedded/version13-3/arm-none-eabi/include/c++/13.3.1/bits\hashtable_policy.h **** 	   typename _Hash, typename _RangeHash, typename _Unused,
 739:C:/Program Files (x86)/GNU Tools Arm Embedded/version13-3/arm-none-eabi/include/c++/13.3.1/bits\hashtable_policy.h **** 	   typename _RehashPolicy, typename _Traits,
 740:C:/Program Files (x86)/GNU Tools Arm Embedded/version13-3/arm-none-eabi/include/c++/13.3.1/bits\hashtable_policy.h **** 	   bool _Unique_keys = _Traits::__unique_keys::value>
 741:C:/Program Files (x86)/GNU Tools Arm Embedded/version13-3/arm-none-eabi/include/c++/13.3.1/bits\hashtable_policy.h ****     struct _Map_base { };
 742:C:/Program Files (x86)/GNU Tools Arm Embedded/version13-3/arm-none-eabi/include/c++/13.3.1/bits\hashtable_policy.h **** 
 743:C:/Program Files (x86)/GNU Tools Arm Embedded/version13-3/arm-none-eabi/include/c++/13.3.1/bits\hashtable_policy.h ****   /// Partial specialization, __unique_keys set to false, std::pair value type.
ARM GAS  C:\Users\Owner\AppData\Local\Temp\cctnuIAx.s 			page 28


 744:C:/Program Files (x86)/GNU Tools Arm Embedded/version13-3/arm-none-eabi/include/c++/13.3.1/bits\hashtable_policy.h ****   template<typename _Key, typename _Val, typename _Alloc, typename _Equal,
 745:C:/Program Files (x86)/GNU Tools Arm Embedded/version13-3/arm-none-eabi/include/c++/13.3.1/bits\hashtable_policy.h **** 	   typename _Hash, typename _RangeHash, typename _Unused,
 746:C:/Program Files (x86)/GNU Tools Arm Embedded/version13-3/arm-none-eabi/include/c++/13.3.1/bits\hashtable_policy.h **** 	   typename _RehashPolicy, typename _Traits>
 747:C:/Program Files (x86)/GNU Tools Arm Embedded/version13-3/arm-none-eabi/include/c++/13.3.1/bits\hashtable_policy.h ****     struct _Map_base<_Key, pair<const _Key, _Val>, _Alloc, _Select1st, _Equal,
 748:C:/Program Files (x86)/GNU Tools Arm Embedded/version13-3/arm-none-eabi/include/c++/13.3.1/bits\hashtable_policy.h **** 		     _Hash, _RangeHash, _Unused, _RehashPolicy, _Traits, false>
 749:C:/Program Files (x86)/GNU Tools Arm Embedded/version13-3/arm-none-eabi/include/c++/13.3.1/bits\hashtable_policy.h ****     {
 750:C:/Program Files (x86)/GNU Tools Arm Embedded/version13-3/arm-none-eabi/include/c++/13.3.1/bits\hashtable_policy.h ****       using mapped_type = _Val;
 751:C:/Program Files (x86)/GNU Tools Arm Embedded/version13-3/arm-none-eabi/include/c++/13.3.1/bits\hashtable_policy.h ****     };
 752:C:/Program Files (x86)/GNU Tools Arm Embedded/version13-3/arm-none-eabi/include/c++/13.3.1/bits\hashtable_policy.h **** 
 753:C:/Program Files (x86)/GNU Tools Arm Embedded/version13-3/arm-none-eabi/include/c++/13.3.1/bits\hashtable_policy.h ****   /// Partial specialization, __unique_keys set to true.
 754:C:/Program Files (x86)/GNU Tools Arm Embedded/version13-3/arm-none-eabi/include/c++/13.3.1/bits\hashtable_policy.h ****   template<typename _Key, typename _Val, typename _Alloc, typename _Equal,
 755:C:/Program Files (x86)/GNU Tools Arm Embedded/version13-3/arm-none-eabi/include/c++/13.3.1/bits\hashtable_policy.h **** 	   typename _Hash, typename _RangeHash, typename _Unused,
 756:C:/Program Files (x86)/GNU Tools Arm Embedded/version13-3/arm-none-eabi/include/c++/13.3.1/bits\hashtable_policy.h **** 	   typename _RehashPolicy, typename _Traits>
 757:C:/Program Files (x86)/GNU Tools Arm Embedded/version13-3/arm-none-eabi/include/c++/13.3.1/bits\hashtable_policy.h ****     struct _Map_base<_Key, pair<const _Key, _Val>, _Alloc, _Select1st, _Equal,
 758:C:/Program Files (x86)/GNU Tools Arm Embedded/version13-3/arm-none-eabi/include/c++/13.3.1/bits\hashtable_policy.h **** 		     _Hash, _RangeHash, _Unused, _RehashPolicy, _Traits, true>
 759:C:/Program Files (x86)/GNU Tools Arm Embedded/version13-3/arm-none-eabi/include/c++/13.3.1/bits\hashtable_policy.h ****     {
 760:C:/Program Files (x86)/GNU Tools Arm Embedded/version13-3/arm-none-eabi/include/c++/13.3.1/bits\hashtable_policy.h ****     private:
 761:C:/Program Files (x86)/GNU Tools Arm Embedded/version13-3/arm-none-eabi/include/c++/13.3.1/bits\hashtable_policy.h ****       using __hashtable_base = _Hashtable_base<_Key, pair<const _Key, _Val>,
 762:C:/Program Files (x86)/GNU Tools Arm Embedded/version13-3/arm-none-eabi/include/c++/13.3.1/bits\hashtable_policy.h **** 					       _Select1st, _Equal, _Hash,
 763:C:/Program Files (x86)/GNU Tools Arm Embedded/version13-3/arm-none-eabi/include/c++/13.3.1/bits\hashtable_policy.h **** 					       _RangeHash, _Unused,
 764:C:/Program Files (x86)/GNU Tools Arm Embedded/version13-3/arm-none-eabi/include/c++/13.3.1/bits\hashtable_policy.h **** 					       _Traits>;
 765:C:/Program Files (x86)/GNU Tools Arm Embedded/version13-3/arm-none-eabi/include/c++/13.3.1/bits\hashtable_policy.h **** 
 766:C:/Program Files (x86)/GNU Tools Arm Embedded/version13-3/arm-none-eabi/include/c++/13.3.1/bits\hashtable_policy.h ****       using __hashtable = _Hashtable<_Key, pair<const _Key, _Val>, _Alloc,
 767:C:/Program Files (x86)/GNU Tools Arm Embedded/version13-3/arm-none-eabi/include/c++/13.3.1/bits\hashtable_policy.h **** 				     _Select1st, _Equal, _Hash, _RangeHash,
 768:C:/Program Files (x86)/GNU Tools Arm Embedded/version13-3/arm-none-eabi/include/c++/13.3.1/bits\hashtable_policy.h **** 				     _Unused, _RehashPolicy, _Traits>;
 769:C:/Program Files (x86)/GNU Tools Arm Embedded/version13-3/arm-none-eabi/include/c++/13.3.1/bits\hashtable_policy.h **** 
 770:C:/Program Files (x86)/GNU Tools Arm Embedded/version13-3/arm-none-eabi/include/c++/13.3.1/bits\hashtable_policy.h ****       using __hash_code = typename __hashtable_base::__hash_code;
 771:C:/Program Files (x86)/GNU Tools Arm Embedded/version13-3/arm-none-eabi/include/c++/13.3.1/bits\hashtable_policy.h **** 
 772:C:/Program Files (x86)/GNU Tools Arm Embedded/version13-3/arm-none-eabi/include/c++/13.3.1/bits\hashtable_policy.h ****     public:
 773:C:/Program Files (x86)/GNU Tools Arm Embedded/version13-3/arm-none-eabi/include/c++/13.3.1/bits\hashtable_policy.h ****       using key_type = typename __hashtable_base::key_type;
 774:C:/Program Files (x86)/GNU Tools Arm Embedded/version13-3/arm-none-eabi/include/c++/13.3.1/bits\hashtable_policy.h ****       using mapped_type = _Val;
 775:C:/Program Files (x86)/GNU Tools Arm Embedded/version13-3/arm-none-eabi/include/c++/13.3.1/bits\hashtable_policy.h **** 
 776:C:/Program Files (x86)/GNU Tools Arm Embedded/version13-3/arm-none-eabi/include/c++/13.3.1/bits\hashtable_policy.h ****       mapped_type&
 777:C:/Program Files (x86)/GNU Tools Arm Embedded/version13-3/arm-none-eabi/include/c++/13.3.1/bits\hashtable_policy.h ****       operator[](const key_type& __k);
 778:C:/Program Files (x86)/GNU Tools Arm Embedded/version13-3/arm-none-eabi/include/c++/13.3.1/bits\hashtable_policy.h **** 
 779:C:/Program Files (x86)/GNU Tools Arm Embedded/version13-3/arm-none-eabi/include/c++/13.3.1/bits\hashtable_policy.h ****       mapped_type&
 780:C:/Program Files (x86)/GNU Tools Arm Embedded/version13-3/arm-none-eabi/include/c++/13.3.1/bits\hashtable_policy.h ****       operator[](key_type&& __k);
 781:C:/Program Files (x86)/GNU Tools Arm Embedded/version13-3/arm-none-eabi/include/c++/13.3.1/bits\hashtable_policy.h **** 
 782:C:/Program Files (x86)/GNU Tools Arm Embedded/version13-3/arm-none-eabi/include/c++/13.3.1/bits\hashtable_policy.h ****       // _GLIBCXX_RESOLVE_LIB_DEFECTS
 783:C:/Program Files (x86)/GNU Tools Arm Embedded/version13-3/arm-none-eabi/include/c++/13.3.1/bits\hashtable_policy.h ****       // DR 761. unordered_map needs an at() member function.
 784:C:/Program Files (x86)/GNU Tools Arm Embedded/version13-3/arm-none-eabi/include/c++/13.3.1/bits\hashtable_policy.h ****       mapped_type&
 785:C:/Program Files (x86)/GNU Tools Arm Embedded/version13-3/arm-none-eabi/include/c++/13.3.1/bits\hashtable_policy.h ****       at(const key_type& __k)
 786:C:/Program Files (x86)/GNU Tools Arm Embedded/version13-3/arm-none-eabi/include/c++/13.3.1/bits\hashtable_policy.h ****       {
 787:C:/Program Files (x86)/GNU Tools Arm Embedded/version13-3/arm-none-eabi/include/c++/13.3.1/bits\hashtable_policy.h **** 	auto __ite = static_cast<__hashtable*>(this)->find(__k);
 788:C:/Program Files (x86)/GNU Tools Arm Embedded/version13-3/arm-none-eabi/include/c++/13.3.1/bits\hashtable_policy.h **** 	if (!__ite._M_cur)
 789:C:/Program Files (x86)/GNU Tools Arm Embedded/version13-3/arm-none-eabi/include/c++/13.3.1/bits\hashtable_policy.h **** 	  __throw_out_of_range(__N("unordered_map::at"));
 790:C:/Program Files (x86)/GNU Tools Arm Embedded/version13-3/arm-none-eabi/include/c++/13.3.1/bits\hashtable_policy.h **** 	return __ite->second;
 791:C:/Program Files (x86)/GNU Tools Arm Embedded/version13-3/arm-none-eabi/include/c++/13.3.1/bits\hashtable_policy.h ****       }
 792:C:/Program Files (x86)/GNU Tools Arm Embedded/version13-3/arm-none-eabi/include/c++/13.3.1/bits\hashtable_policy.h **** 
 793:C:/Program Files (x86)/GNU Tools Arm Embedded/version13-3/arm-none-eabi/include/c++/13.3.1/bits\hashtable_policy.h ****       const mapped_type&
 794:C:/Program Files (x86)/GNU Tools Arm Embedded/version13-3/arm-none-eabi/include/c++/13.3.1/bits\hashtable_policy.h ****       at(const key_type& __k) const
 795:C:/Program Files (x86)/GNU Tools Arm Embedded/version13-3/arm-none-eabi/include/c++/13.3.1/bits\hashtable_policy.h ****       {
 796:C:/Program Files (x86)/GNU Tools Arm Embedded/version13-3/arm-none-eabi/include/c++/13.3.1/bits\hashtable_policy.h **** 	auto __ite = static_cast<const __hashtable*>(this)->find(__k);
 797:C:/Program Files (x86)/GNU Tools Arm Embedded/version13-3/arm-none-eabi/include/c++/13.3.1/bits\hashtable_policy.h **** 	if (!__ite._M_cur)
 798:C:/Program Files (x86)/GNU Tools Arm Embedded/version13-3/arm-none-eabi/include/c++/13.3.1/bits\hashtable_policy.h **** 	  __throw_out_of_range(__N("unordered_map::at"));
 799:C:/Program Files (x86)/GNU Tools Arm Embedded/version13-3/arm-none-eabi/include/c++/13.3.1/bits\hashtable_policy.h **** 	return __ite->second;
 800:C:/Program Files (x86)/GNU Tools Arm Embedded/version13-3/arm-none-eabi/include/c++/13.3.1/bits\hashtable_policy.h ****       }
ARM GAS  C:\Users\Owner\AppData\Local\Temp\cctnuIAx.s 			page 29


 801:C:/Program Files (x86)/GNU Tools Arm Embedded/version13-3/arm-none-eabi/include/c++/13.3.1/bits\hashtable_policy.h ****     };
 802:C:/Program Files (x86)/GNU Tools Arm Embedded/version13-3/arm-none-eabi/include/c++/13.3.1/bits\hashtable_policy.h **** 
 803:C:/Program Files (x86)/GNU Tools Arm Embedded/version13-3/arm-none-eabi/include/c++/13.3.1/bits\hashtable_policy.h ****   template<typename _Key, typename _Val, typename _Alloc, typename _Equal,
 804:C:/Program Files (x86)/GNU Tools Arm Embedded/version13-3/arm-none-eabi/include/c++/13.3.1/bits\hashtable_policy.h **** 	   typename _Hash, typename _RangeHash, typename _Unused,
 805:C:/Program Files (x86)/GNU Tools Arm Embedded/version13-3/arm-none-eabi/include/c++/13.3.1/bits\hashtable_policy.h **** 	   typename _RehashPolicy, typename _Traits>
 806:C:/Program Files (x86)/GNU Tools Arm Embedded/version13-3/arm-none-eabi/include/c++/13.3.1/bits\hashtable_policy.h ****     auto
 807:C:/Program Files (x86)/GNU Tools Arm Embedded/version13-3/arm-none-eabi/include/c++/13.3.1/bits\hashtable_policy.h ****     _Map_base<_Key, pair<const _Key, _Val>, _Alloc, _Select1st, _Equal,
 808:C:/Program Files (x86)/GNU Tools Arm Embedded/version13-3/arm-none-eabi/include/c++/13.3.1/bits\hashtable_policy.h **** 	      _Hash, _RangeHash, _Unused, _RehashPolicy, _Traits, true>::
 809:C:/Program Files (x86)/GNU Tools Arm Embedded/version13-3/arm-none-eabi/include/c++/13.3.1/bits\hashtable_policy.h ****     operator[](const key_type& __k)
 810:C:/Program Files (x86)/GNU Tools Arm Embedded/version13-3/arm-none-eabi/include/c++/13.3.1/bits\hashtable_policy.h ****     -> mapped_type&
 811:C:/Program Files (x86)/GNU Tools Arm Embedded/version13-3/arm-none-eabi/include/c++/13.3.1/bits\hashtable_policy.h ****     {
 812:C:/Program Files (x86)/GNU Tools Arm Embedded/version13-3/arm-none-eabi/include/c++/13.3.1/bits\hashtable_policy.h ****       __hashtable* __h = static_cast<__hashtable*>(this);
 813:C:/Program Files (x86)/GNU Tools Arm Embedded/version13-3/arm-none-eabi/include/c++/13.3.1/bits\hashtable_policy.h ****       __hash_code __code = __h->_M_hash_code(__k);
 814:C:/Program Files (x86)/GNU Tools Arm Embedded/version13-3/arm-none-eabi/include/c++/13.3.1/bits\hashtable_policy.h ****       std::size_t __bkt = __h->_M_bucket_index(__code);
 815:C:/Program Files (x86)/GNU Tools Arm Embedded/version13-3/arm-none-eabi/include/c++/13.3.1/bits\hashtable_policy.h ****       if (auto __node = __h->_M_find_node(__bkt, __k, __code))
 816:C:/Program Files (x86)/GNU Tools Arm Embedded/version13-3/arm-none-eabi/include/c++/13.3.1/bits\hashtable_policy.h **** 	return __node->_M_v().second;
 817:C:/Program Files (x86)/GNU Tools Arm Embedded/version13-3/arm-none-eabi/include/c++/13.3.1/bits\hashtable_policy.h **** 
 818:C:/Program Files (x86)/GNU Tools Arm Embedded/version13-3/arm-none-eabi/include/c++/13.3.1/bits\hashtable_policy.h ****       typename __hashtable::_Scoped_node __node {
 819:C:/Program Files (x86)/GNU Tools Arm Embedded/version13-3/arm-none-eabi/include/c++/13.3.1/bits\hashtable_policy.h **** 	__h,
 820:C:/Program Files (x86)/GNU Tools Arm Embedded/version13-3/arm-none-eabi/include/c++/13.3.1/bits\hashtable_policy.h **** 	std::piecewise_construct,
 821:C:/Program Files (x86)/GNU Tools Arm Embedded/version13-3/arm-none-eabi/include/c++/13.3.1/bits\hashtable_policy.h **** 	std::tuple<const key_type&>(__k),
 822:C:/Program Files (x86)/GNU Tools Arm Embedded/version13-3/arm-none-eabi/include/c++/13.3.1/bits\hashtable_policy.h **** 	std::tuple<>()
 823:C:/Program Files (x86)/GNU Tools Arm Embedded/version13-3/arm-none-eabi/include/c++/13.3.1/bits\hashtable_policy.h ****       };
 824:C:/Program Files (x86)/GNU Tools Arm Embedded/version13-3/arm-none-eabi/include/c++/13.3.1/bits\hashtable_policy.h ****       auto __pos
 825:C:/Program Files (x86)/GNU Tools Arm Embedded/version13-3/arm-none-eabi/include/c++/13.3.1/bits\hashtable_policy.h **** 	= __h->_M_insert_unique_node(__bkt, __code, __node._M_node);
 826:C:/Program Files (x86)/GNU Tools Arm Embedded/version13-3/arm-none-eabi/include/c++/13.3.1/bits\hashtable_policy.h ****       __node._M_node = nullptr;
 827:C:/Program Files (x86)/GNU Tools Arm Embedded/version13-3/arm-none-eabi/include/c++/13.3.1/bits\hashtable_policy.h ****       return __pos->second;
 828:C:/Program Files (x86)/GNU Tools Arm Embedded/version13-3/arm-none-eabi/include/c++/13.3.1/bits\hashtable_policy.h ****     }
 829:C:/Program Files (x86)/GNU Tools Arm Embedded/version13-3/arm-none-eabi/include/c++/13.3.1/bits\hashtable_policy.h **** 
 830:C:/Program Files (x86)/GNU Tools Arm Embedded/version13-3/arm-none-eabi/include/c++/13.3.1/bits\hashtable_policy.h ****   template<typename _Key, typename _Val, typename _Alloc, typename _Equal,
 831:C:/Program Files (x86)/GNU Tools Arm Embedded/version13-3/arm-none-eabi/include/c++/13.3.1/bits\hashtable_policy.h **** 	   typename _Hash, typename _RangeHash, typename _Unused,
 832:C:/Program Files (x86)/GNU Tools Arm Embedded/version13-3/arm-none-eabi/include/c++/13.3.1/bits\hashtable_policy.h **** 	   typename _RehashPolicy, typename _Traits>
 833:C:/Program Files (x86)/GNU Tools Arm Embedded/version13-3/arm-none-eabi/include/c++/13.3.1/bits\hashtable_policy.h ****     auto
 834:C:/Program Files (x86)/GNU Tools Arm Embedded/version13-3/arm-none-eabi/include/c++/13.3.1/bits\hashtable_policy.h ****     _Map_base<_Key, pair<const _Key, _Val>, _Alloc, _Select1st, _Equal,
 835:C:/Program Files (x86)/GNU Tools Arm Embedded/version13-3/arm-none-eabi/include/c++/13.3.1/bits\hashtable_policy.h **** 	      _Hash, _RangeHash, _Unused, _RehashPolicy, _Traits, true>::
 836:C:/Program Files (x86)/GNU Tools Arm Embedded/version13-3/arm-none-eabi/include/c++/13.3.1/bits\hashtable_policy.h ****     operator[](key_type&& __k)
 837:C:/Program Files (x86)/GNU Tools Arm Embedded/version13-3/arm-none-eabi/include/c++/13.3.1/bits\hashtable_policy.h ****     -> mapped_type&
 838:C:/Program Files (x86)/GNU Tools Arm Embedded/version13-3/arm-none-eabi/include/c++/13.3.1/bits\hashtable_policy.h ****     {
 839:C:/Program Files (x86)/GNU Tools Arm Embedded/version13-3/arm-none-eabi/include/c++/13.3.1/bits\hashtable_policy.h ****       __hashtable* __h = static_cast<__hashtable*>(this);
 840:C:/Program Files (x86)/GNU Tools Arm Embedded/version13-3/arm-none-eabi/include/c++/13.3.1/bits\hashtable_policy.h ****       __hash_code __code = __h->_M_hash_code(__k);
 841:C:/Program Files (x86)/GNU Tools Arm Embedded/version13-3/arm-none-eabi/include/c++/13.3.1/bits\hashtable_policy.h ****       std::size_t __bkt = __h->_M_bucket_index(__code);
 842:C:/Program Files (x86)/GNU Tools Arm Embedded/version13-3/arm-none-eabi/include/c++/13.3.1/bits\hashtable_policy.h ****       if (auto __node = __h->_M_find_node(__bkt, __k, __code))
 843:C:/Program Files (x86)/GNU Tools Arm Embedded/version13-3/arm-none-eabi/include/c++/13.3.1/bits\hashtable_policy.h **** 	return __node->_M_v().second;
 844:C:/Program Files (x86)/GNU Tools Arm Embedded/version13-3/arm-none-eabi/include/c++/13.3.1/bits\hashtable_policy.h **** 
 845:C:/Program Files (x86)/GNU Tools Arm Embedded/version13-3/arm-none-eabi/include/c++/13.3.1/bits\hashtable_policy.h ****       typename __hashtable::_Scoped_node __node {
 846:C:/Program Files (x86)/GNU Tools Arm Embedded/version13-3/arm-none-eabi/include/c++/13.3.1/bits\hashtable_policy.h **** 	__h,
 847:C:/Program Files (x86)/GNU Tools Arm Embedded/version13-3/arm-none-eabi/include/c++/13.3.1/bits\hashtable_policy.h **** 	std::piecewise_construct,
 848:C:/Program Files (x86)/GNU Tools Arm Embedded/version13-3/arm-none-eabi/include/c++/13.3.1/bits\hashtable_policy.h **** 	std::forward_as_tuple(std::move(__k)),
 849:C:/Program Files (x86)/GNU Tools Arm Embedded/version13-3/arm-none-eabi/include/c++/13.3.1/bits\hashtable_policy.h **** 	std::tuple<>()
 850:C:/Program Files (x86)/GNU Tools Arm Embedded/version13-3/arm-none-eabi/include/c++/13.3.1/bits\hashtable_policy.h ****       };
 851:C:/Program Files (x86)/GNU Tools Arm Embedded/version13-3/arm-none-eabi/include/c++/13.3.1/bits\hashtable_policy.h ****       auto __pos
 852:C:/Program Files (x86)/GNU Tools Arm Embedded/version13-3/arm-none-eabi/include/c++/13.3.1/bits\hashtable_policy.h **** 	= __h->_M_insert_unique_node(__bkt, __code, __node._M_node);
 853:C:/Program Files (x86)/GNU Tools Arm Embedded/version13-3/arm-none-eabi/include/c++/13.3.1/bits\hashtable_policy.h ****       __node._M_node = nullptr;
 854:C:/Program Files (x86)/GNU Tools Arm Embedded/version13-3/arm-none-eabi/include/c++/13.3.1/bits\hashtable_policy.h ****       return __pos->second;
 855:C:/Program Files (x86)/GNU Tools Arm Embedded/version13-3/arm-none-eabi/include/c++/13.3.1/bits\hashtable_policy.h ****     }
 856:C:/Program Files (x86)/GNU Tools Arm Embedded/version13-3/arm-none-eabi/include/c++/13.3.1/bits\hashtable_policy.h **** 
 857:C:/Program Files (x86)/GNU Tools Arm Embedded/version13-3/arm-none-eabi/include/c++/13.3.1/bits\hashtable_policy.h ****   // Partial specialization for unordered_map<const T, U>, see PR 104174.
ARM GAS  C:\Users\Owner\AppData\Local\Temp\cctnuIAx.s 			page 30


 858:C:/Program Files (x86)/GNU Tools Arm Embedded/version13-3/arm-none-eabi/include/c++/13.3.1/bits\hashtable_policy.h ****   template<typename _Key, typename _Val, typename _Alloc, typename _Equal,
 859:C:/Program Files (x86)/GNU Tools Arm Embedded/version13-3/arm-none-eabi/include/c++/13.3.1/bits\hashtable_policy.h **** 	   typename _Hash, typename _RangeHash, typename _Unused,
 860:C:/Program Files (x86)/GNU Tools Arm Embedded/version13-3/arm-none-eabi/include/c++/13.3.1/bits\hashtable_policy.h **** 	   typename _RehashPolicy, typename _Traits, bool __uniq>
 861:C:/Program Files (x86)/GNU Tools Arm Embedded/version13-3/arm-none-eabi/include/c++/13.3.1/bits\hashtable_policy.h ****     struct _Map_base<const _Key, pair<const _Key, _Val>,
 862:C:/Program Files (x86)/GNU Tools Arm Embedded/version13-3/arm-none-eabi/include/c++/13.3.1/bits\hashtable_policy.h **** 		     _Alloc, _Select1st, _Equal, _Hash,
 863:C:/Program Files (x86)/GNU Tools Arm Embedded/version13-3/arm-none-eabi/include/c++/13.3.1/bits\hashtable_policy.h **** 		     _RangeHash, _Unused, _RehashPolicy, _Traits, __uniq>
 864:C:/Program Files (x86)/GNU Tools Arm Embedded/version13-3/arm-none-eabi/include/c++/13.3.1/bits\hashtable_policy.h ****     : _Map_base<_Key, pair<const _Key, _Val>, _Alloc, _Select1st, _Equal, _Hash,
 865:C:/Program Files (x86)/GNU Tools Arm Embedded/version13-3/arm-none-eabi/include/c++/13.3.1/bits\hashtable_policy.h **** 		_RangeHash, _Unused, _RehashPolicy, _Traits, __uniq>
 866:C:/Program Files (x86)/GNU Tools Arm Embedded/version13-3/arm-none-eabi/include/c++/13.3.1/bits\hashtable_policy.h ****     { };
 867:C:/Program Files (x86)/GNU Tools Arm Embedded/version13-3/arm-none-eabi/include/c++/13.3.1/bits\hashtable_policy.h **** 
 868:C:/Program Files (x86)/GNU Tools Arm Embedded/version13-3/arm-none-eabi/include/c++/13.3.1/bits\hashtable_policy.h ****   /**
 869:C:/Program Files (x86)/GNU Tools Arm Embedded/version13-3/arm-none-eabi/include/c++/13.3.1/bits\hashtable_policy.h ****    *  Primary class template _Insert_base.
 870:C:/Program Files (x86)/GNU Tools Arm Embedded/version13-3/arm-none-eabi/include/c++/13.3.1/bits\hashtable_policy.h ****    *
 871:C:/Program Files (x86)/GNU Tools Arm Embedded/version13-3/arm-none-eabi/include/c++/13.3.1/bits\hashtable_policy.h ****    *  Defines @c insert member functions appropriate to all _Hashtables.
 872:C:/Program Files (x86)/GNU Tools Arm Embedded/version13-3/arm-none-eabi/include/c++/13.3.1/bits\hashtable_policy.h ****    */
 873:C:/Program Files (x86)/GNU Tools Arm Embedded/version13-3/arm-none-eabi/include/c++/13.3.1/bits\hashtable_policy.h ****   template<typename _Key, typename _Value, typename _Alloc,
 874:C:/Program Files (x86)/GNU Tools Arm Embedded/version13-3/arm-none-eabi/include/c++/13.3.1/bits\hashtable_policy.h **** 	   typename _ExtractKey, typename _Equal,
 875:C:/Program Files (x86)/GNU Tools Arm Embedded/version13-3/arm-none-eabi/include/c++/13.3.1/bits\hashtable_policy.h **** 	   typename _Hash, typename _RangeHash, typename _Unused,
